ARM GAS  /var/folders/fs/dxwfnrqj18z860lwl3d6f5t00000gn/T//cc1liz9x.s 			page 1


   1              		.cpu cortex-m0plus
   2              		.eabi_attribute 20, 1
   3              		.eabi_attribute 21, 1
   4              		.eabi_attribute 23, 3
   5              		.eabi_attribute 24, 1
   6              		.eabi_attribute 25, 1
   7              		.eabi_attribute 26, 1
   8              		.eabi_attribute 30, 6
   9              		.eabi_attribute 34, 0
  10              		.eabi_attribute 18, 4
  11              		.file	"stm32l0xx_hal_i2c.c"
  12              		.text
  13              	.Ltext0:
  14              		.cfi_sections	.debug_frame
  15              		.section	.text.HAL_I2C_Init,"ax",%progbits
  16              		.align	1
  17              		.global	HAL_I2C_Init
  18              		.arch armv6s-m
  19              		.syntax unified
  20              		.code	16
  21              		.thumb_func
  22              		.fpu softvfp
  24              	HAL_I2C_Init:
  25              	.LFB47:
  26              		.file 1 "Drivers/STM32L0xx_HAL_Driver/Src/stm32l0xx_hal_i2c.c"
   1:Drivers/STM32L0xx_HAL_Driver/Src/stm32l0xx_hal_i2c.c **** /**
   2:Drivers/STM32L0xx_HAL_Driver/Src/stm32l0xx_hal_i2c.c ****   ******************************************************************************
   3:Drivers/STM32L0xx_HAL_Driver/Src/stm32l0xx_hal_i2c.c ****   * @file    stm32l0xx_hal_i2c.c
   4:Drivers/STM32L0xx_HAL_Driver/Src/stm32l0xx_hal_i2c.c ****   * @author  MCD Application Team
   5:Drivers/STM32L0xx_HAL_Driver/Src/stm32l0xx_hal_i2c.c ****   * @brief   I2C HAL module driver.
   6:Drivers/STM32L0xx_HAL_Driver/Src/stm32l0xx_hal_i2c.c ****   *          This file provides firmware functions to manage the following
   7:Drivers/STM32L0xx_HAL_Driver/Src/stm32l0xx_hal_i2c.c ****   *          functionalities of the Inter Integrated Circuit (I2C) peripheral:
   8:Drivers/STM32L0xx_HAL_Driver/Src/stm32l0xx_hal_i2c.c ****   *           + Initialization and de-initialization functions
   9:Drivers/STM32L0xx_HAL_Driver/Src/stm32l0xx_hal_i2c.c ****   *           + IO operation functions
  10:Drivers/STM32L0xx_HAL_Driver/Src/stm32l0xx_hal_i2c.c ****   *           + Peripheral State and Errors functions
  11:Drivers/STM32L0xx_HAL_Driver/Src/stm32l0xx_hal_i2c.c ****   *
  12:Drivers/STM32L0xx_HAL_Driver/Src/stm32l0xx_hal_i2c.c ****   @verbatim
  13:Drivers/STM32L0xx_HAL_Driver/Src/stm32l0xx_hal_i2c.c ****   ==============================================================================
  14:Drivers/STM32L0xx_HAL_Driver/Src/stm32l0xx_hal_i2c.c ****                         ##### How to use this driver #####
  15:Drivers/STM32L0xx_HAL_Driver/Src/stm32l0xx_hal_i2c.c ****   ==============================================================================
  16:Drivers/STM32L0xx_HAL_Driver/Src/stm32l0xx_hal_i2c.c ****     [..]
  17:Drivers/STM32L0xx_HAL_Driver/Src/stm32l0xx_hal_i2c.c ****     The I2C HAL driver can be used as follows:
  18:Drivers/STM32L0xx_HAL_Driver/Src/stm32l0xx_hal_i2c.c **** 
  19:Drivers/STM32L0xx_HAL_Driver/Src/stm32l0xx_hal_i2c.c ****     (#) Declare a I2C_HandleTypeDef handle structure, for example:
  20:Drivers/STM32L0xx_HAL_Driver/Src/stm32l0xx_hal_i2c.c ****         I2C_HandleTypeDef  hi2c;
  21:Drivers/STM32L0xx_HAL_Driver/Src/stm32l0xx_hal_i2c.c **** 
  22:Drivers/STM32L0xx_HAL_Driver/Src/stm32l0xx_hal_i2c.c ****     (#)Initialize the I2C low level resources by implementing the HAL_I2C_MspInit() API:
  23:Drivers/STM32L0xx_HAL_Driver/Src/stm32l0xx_hal_i2c.c ****         (##) Enable the I2Cx interface clock
  24:Drivers/STM32L0xx_HAL_Driver/Src/stm32l0xx_hal_i2c.c ****         (##) I2C pins configuration
  25:Drivers/STM32L0xx_HAL_Driver/Src/stm32l0xx_hal_i2c.c ****             (+++) Enable the clock for the I2C GPIOs
  26:Drivers/STM32L0xx_HAL_Driver/Src/stm32l0xx_hal_i2c.c ****             (+++) Configure I2C pins as alternate function open-drain
  27:Drivers/STM32L0xx_HAL_Driver/Src/stm32l0xx_hal_i2c.c ****         (##) NVIC configuration if you need to use interrupt process
  28:Drivers/STM32L0xx_HAL_Driver/Src/stm32l0xx_hal_i2c.c ****             (+++) Configure the I2Cx interrupt priority
  29:Drivers/STM32L0xx_HAL_Driver/Src/stm32l0xx_hal_i2c.c ****             (+++) Enable the NVIC I2C IRQ Channel
  30:Drivers/STM32L0xx_HAL_Driver/Src/stm32l0xx_hal_i2c.c ****         (##) DMA Configuration if you need to use DMA process
  31:Drivers/STM32L0xx_HAL_Driver/Src/stm32l0xx_hal_i2c.c ****             (+++) Declare a DMA_HandleTypeDef handle structure for
  32:Drivers/STM32L0xx_HAL_Driver/Src/stm32l0xx_hal_i2c.c ****                   the transmit or receive channel
ARM GAS  /var/folders/fs/dxwfnrqj18z860lwl3d6f5t00000gn/T//cc1liz9x.s 			page 2


  33:Drivers/STM32L0xx_HAL_Driver/Src/stm32l0xx_hal_i2c.c ****             (+++) Enable the DMAx interface clock using
  34:Drivers/STM32L0xx_HAL_Driver/Src/stm32l0xx_hal_i2c.c ****             (+++) Configure the DMA handle parameters
  35:Drivers/STM32L0xx_HAL_Driver/Src/stm32l0xx_hal_i2c.c ****             (+++) Configure the DMA Tx or Rx channel
  36:Drivers/STM32L0xx_HAL_Driver/Src/stm32l0xx_hal_i2c.c ****             (+++) Associate the initialized DMA handle to the hi2c DMA Tx or Rx handle
  37:Drivers/STM32L0xx_HAL_Driver/Src/stm32l0xx_hal_i2c.c ****             (+++) Configure the priority and enable the NVIC for the transfer complete interrupt on
  38:Drivers/STM32L0xx_HAL_Driver/Src/stm32l0xx_hal_i2c.c ****                   the DMA Tx or Rx channel
  39:Drivers/STM32L0xx_HAL_Driver/Src/stm32l0xx_hal_i2c.c **** 
  40:Drivers/STM32L0xx_HAL_Driver/Src/stm32l0xx_hal_i2c.c ****     (#) Configure the Communication Clock Timing, Own Address1, Master Addressing mode, Dual Addres
  41:Drivers/STM32L0xx_HAL_Driver/Src/stm32l0xx_hal_i2c.c ****         Own Address2, Own Address2 Mask, General call and Nostretch mode in the hi2c Init structure
  42:Drivers/STM32L0xx_HAL_Driver/Src/stm32l0xx_hal_i2c.c **** 
  43:Drivers/STM32L0xx_HAL_Driver/Src/stm32l0xx_hal_i2c.c ****     (#) Initialize the I2C registers by calling the HAL_I2C_Init(), configures also the low level H
  44:Drivers/STM32L0xx_HAL_Driver/Src/stm32l0xx_hal_i2c.c ****         (GPIO, CLOCK, NVIC...etc) by calling the customized HAL_I2C_MspInit(&hi2c) API.
  45:Drivers/STM32L0xx_HAL_Driver/Src/stm32l0xx_hal_i2c.c **** 
  46:Drivers/STM32L0xx_HAL_Driver/Src/stm32l0xx_hal_i2c.c ****     (#) To check if target device is ready for communication, use the function HAL_I2C_IsDeviceRead
  47:Drivers/STM32L0xx_HAL_Driver/Src/stm32l0xx_hal_i2c.c **** 
  48:Drivers/STM32L0xx_HAL_Driver/Src/stm32l0xx_hal_i2c.c ****     (#) For I2C IO and IO MEM operations, three operation modes are available within this driver :
  49:Drivers/STM32L0xx_HAL_Driver/Src/stm32l0xx_hal_i2c.c **** 
  50:Drivers/STM32L0xx_HAL_Driver/Src/stm32l0xx_hal_i2c.c ****     *** Polling mode IO operation ***
  51:Drivers/STM32L0xx_HAL_Driver/Src/stm32l0xx_hal_i2c.c ****     =================================
  52:Drivers/STM32L0xx_HAL_Driver/Src/stm32l0xx_hal_i2c.c ****     [..]
  53:Drivers/STM32L0xx_HAL_Driver/Src/stm32l0xx_hal_i2c.c ****       (+) Transmit in master mode an amount of data in blocking mode using HAL_I2C_Master_Transmit(
  54:Drivers/STM32L0xx_HAL_Driver/Src/stm32l0xx_hal_i2c.c ****       (+) Receive in master mode an amount of data in blocking mode using HAL_I2C_Master_Receive()
  55:Drivers/STM32L0xx_HAL_Driver/Src/stm32l0xx_hal_i2c.c ****       (+) Transmit in slave mode an amount of data in blocking mode using HAL_I2C_Slave_Transmit()
  56:Drivers/STM32L0xx_HAL_Driver/Src/stm32l0xx_hal_i2c.c ****       (+) Receive in slave mode an amount of data in blocking mode using HAL_I2C_Slave_Receive()
  57:Drivers/STM32L0xx_HAL_Driver/Src/stm32l0xx_hal_i2c.c **** 
  58:Drivers/STM32L0xx_HAL_Driver/Src/stm32l0xx_hal_i2c.c ****     *** Polling mode IO MEM operation ***
  59:Drivers/STM32L0xx_HAL_Driver/Src/stm32l0xx_hal_i2c.c ****     =====================================
  60:Drivers/STM32L0xx_HAL_Driver/Src/stm32l0xx_hal_i2c.c ****     [..]
  61:Drivers/STM32L0xx_HAL_Driver/Src/stm32l0xx_hal_i2c.c ****       (+) Write an amount of data in blocking mode to a specific memory address using HAL_I2C_Mem_W
  62:Drivers/STM32L0xx_HAL_Driver/Src/stm32l0xx_hal_i2c.c ****       (+) Read an amount of data in blocking mode from a specific memory address using HAL_I2C_Mem_
  63:Drivers/STM32L0xx_HAL_Driver/Src/stm32l0xx_hal_i2c.c **** 
  64:Drivers/STM32L0xx_HAL_Driver/Src/stm32l0xx_hal_i2c.c **** 
  65:Drivers/STM32L0xx_HAL_Driver/Src/stm32l0xx_hal_i2c.c ****     *** Interrupt mode IO operation ***
  66:Drivers/STM32L0xx_HAL_Driver/Src/stm32l0xx_hal_i2c.c ****     ===================================
  67:Drivers/STM32L0xx_HAL_Driver/Src/stm32l0xx_hal_i2c.c ****     [..]
  68:Drivers/STM32L0xx_HAL_Driver/Src/stm32l0xx_hal_i2c.c ****       (+) Transmit in master mode an amount of data in non-blocking mode using HAL_I2C_Master_Trans
  69:Drivers/STM32L0xx_HAL_Driver/Src/stm32l0xx_hal_i2c.c ****       (+) At transmission end of transfer, HAL_I2C_MasterTxCpltCallback() is executed and users can
  70:Drivers/STM32L0xx_HAL_Driver/Src/stm32l0xx_hal_i2c.c ****            add their own code by customization of function pointer HAL_I2C_MasterTxCpltCallback()
  71:Drivers/STM32L0xx_HAL_Driver/Src/stm32l0xx_hal_i2c.c ****       (+) Receive in master mode an amount of data in non-blocking mode using HAL_I2C_Master_Receiv
  72:Drivers/STM32L0xx_HAL_Driver/Src/stm32l0xx_hal_i2c.c ****       (+) At reception end of transfer, HAL_I2C_MasterRxCpltCallback() is executed and users can
  73:Drivers/STM32L0xx_HAL_Driver/Src/stm32l0xx_hal_i2c.c ****            add their own code by customization of function pointer HAL_I2C_MasterRxCpltCallback()
  74:Drivers/STM32L0xx_HAL_Driver/Src/stm32l0xx_hal_i2c.c ****       (+) Transmit in slave mode an amount of data in non-blocking mode using HAL_I2C_Slave_Transmi
  75:Drivers/STM32L0xx_HAL_Driver/Src/stm32l0xx_hal_i2c.c ****       (+) At transmission end of transfer, HAL_I2C_SlaveTxCpltCallback() is executed and users can
  76:Drivers/STM32L0xx_HAL_Driver/Src/stm32l0xx_hal_i2c.c ****            add their own code by customization of function pointer HAL_I2C_SlaveTxCpltCallback()
  77:Drivers/STM32L0xx_HAL_Driver/Src/stm32l0xx_hal_i2c.c ****       (+) Receive in slave mode an amount of data in non-blocking mode using HAL_I2C_Slave_Receive_
  78:Drivers/STM32L0xx_HAL_Driver/Src/stm32l0xx_hal_i2c.c ****       (+) At reception end of transfer, HAL_I2C_SlaveRxCpltCallback() is executed and users can
  79:Drivers/STM32L0xx_HAL_Driver/Src/stm32l0xx_hal_i2c.c ****            add their own code by customization of function pointer HAL_I2C_SlaveRxCpltCallback()
  80:Drivers/STM32L0xx_HAL_Driver/Src/stm32l0xx_hal_i2c.c ****       (+) In case of transfer Error, HAL_I2C_ErrorCallback() function is executed and users can
  81:Drivers/STM32L0xx_HAL_Driver/Src/stm32l0xx_hal_i2c.c ****            add their own code by customization of function pointer HAL_I2C_ErrorCallback()
  82:Drivers/STM32L0xx_HAL_Driver/Src/stm32l0xx_hal_i2c.c ****       (+) Abort a master I2C process communication with Interrupt using HAL_I2C_Master_Abort_IT()
  83:Drivers/STM32L0xx_HAL_Driver/Src/stm32l0xx_hal_i2c.c ****       (+) End of abort process, HAL_I2C_AbortCpltCallback() is executed and users can
  84:Drivers/STM32L0xx_HAL_Driver/Src/stm32l0xx_hal_i2c.c ****            add their own code by customization of function pointer HAL_I2C_AbortCpltCallback()
  85:Drivers/STM32L0xx_HAL_Driver/Src/stm32l0xx_hal_i2c.c ****       (+) Discard a slave I2C process communication using __HAL_I2C_GENERATE_NACK() macro.
  86:Drivers/STM32L0xx_HAL_Driver/Src/stm32l0xx_hal_i2c.c ****            This action will inform Master to generate a Stop condition to discard the communication
  87:Drivers/STM32L0xx_HAL_Driver/Src/stm32l0xx_hal_i2c.c **** 
  88:Drivers/STM32L0xx_HAL_Driver/Src/stm32l0xx_hal_i2c.c **** 
  89:Drivers/STM32L0xx_HAL_Driver/Src/stm32l0xx_hal_i2c.c ****     *** Interrupt mode or DMA mode IO sequential operation ***
ARM GAS  /var/folders/fs/dxwfnrqj18z860lwl3d6f5t00000gn/T//cc1liz9x.s 			page 3


  90:Drivers/STM32L0xx_HAL_Driver/Src/stm32l0xx_hal_i2c.c ****     ==========================================================
  91:Drivers/STM32L0xx_HAL_Driver/Src/stm32l0xx_hal_i2c.c ****     [..]
  92:Drivers/STM32L0xx_HAL_Driver/Src/stm32l0xx_hal_i2c.c ****       (@) These interfaces allow to manage a sequential transfer with a repeated start condition
  93:Drivers/STM32L0xx_HAL_Driver/Src/stm32l0xx_hal_i2c.c ****           when a direction change during transfer
  94:Drivers/STM32L0xx_HAL_Driver/Src/stm32l0xx_hal_i2c.c ****     [..]
  95:Drivers/STM32L0xx_HAL_Driver/Src/stm32l0xx_hal_i2c.c ****       (+) A specific option field manage the different steps of a sequential transfer
  96:Drivers/STM32L0xx_HAL_Driver/Src/stm32l0xx_hal_i2c.c ****       (+) Option field values are defined through I2C_XFEROPTIONS and are listed below:
  97:Drivers/STM32L0xx_HAL_Driver/Src/stm32l0xx_hal_i2c.c ****       (++) I2C_FIRST_AND_LAST_FRAME: No sequential usage, functional is same as associated interfac
  98:Drivers/STM32L0xx_HAL_Driver/Src/stm32l0xx_hal_i2c.c ****            no sequential mode
  99:Drivers/STM32L0xx_HAL_Driver/Src/stm32l0xx_hal_i2c.c ****       (++) I2C_FIRST_FRAME: Sequential usage, this option allow to manage a sequence with start con
 100:Drivers/STM32L0xx_HAL_Driver/Src/stm32l0xx_hal_i2c.c ****                             and data to transfer without a final stop condition
 101:Drivers/STM32L0xx_HAL_Driver/Src/stm32l0xx_hal_i2c.c ****       (++) I2C_FIRST_AND_NEXT_FRAME: Sequential usage (Master only), this option allow to manage a 
 102:Drivers/STM32L0xx_HAL_Driver/Src/stm32l0xx_hal_i2c.c ****                             start condition, address and data to transfer without a final stop cond
 103:Drivers/STM32L0xx_HAL_Driver/Src/stm32l0xx_hal_i2c.c ****                             an then permit a call the same master sequential interface several time
 104:Drivers/STM32L0xx_HAL_Driver/Src/stm32l0xx_hal_i2c.c ****                             (like HAL_I2C_Master_Seq_Transmit_IT() then HAL_I2C_Master_Seq_Transmit
 105:Drivers/STM32L0xx_HAL_Driver/Src/stm32l0xx_hal_i2c.c ****                             or HAL_I2C_Master_Seq_Transmit_DMA() then HAL_I2C_Master_Seq_Transmit_D
 106:Drivers/STM32L0xx_HAL_Driver/Src/stm32l0xx_hal_i2c.c ****       (++) I2C_NEXT_FRAME: Sequential usage, this option allow to manage a sequence with a restart 
 107:Drivers/STM32L0xx_HAL_Driver/Src/stm32l0xx_hal_i2c.c ****                             and with new data to transfer if the direction change or manage only th
 108:Drivers/STM32L0xx_HAL_Driver/Src/stm32l0xx_hal_i2c.c ****                             transfer
 109:Drivers/STM32L0xx_HAL_Driver/Src/stm32l0xx_hal_i2c.c ****                             if no direction change and without a final stop condition in both cases
 110:Drivers/STM32L0xx_HAL_Driver/Src/stm32l0xx_hal_i2c.c ****       (++) I2C_LAST_FRAME: Sequential usage, this option allow to manage a sequance with a restart 
 111:Drivers/STM32L0xx_HAL_Driver/Src/stm32l0xx_hal_i2c.c ****                             and with new data to transfer if the direction change or manage only th
 112:Drivers/STM32L0xx_HAL_Driver/Src/stm32l0xx_hal_i2c.c ****                             transfer
 113:Drivers/STM32L0xx_HAL_Driver/Src/stm32l0xx_hal_i2c.c ****                             if no direction change and with a final stop condition in both cases
 114:Drivers/STM32L0xx_HAL_Driver/Src/stm32l0xx_hal_i2c.c ****       (++) I2C_LAST_FRAME_NO_STOP: Sequential usage (Master only), this option allow to manage a re
 115:Drivers/STM32L0xx_HAL_Driver/Src/stm32l0xx_hal_i2c.c ****                             after several call of the same master sequential interface several time
 116:Drivers/STM32L0xx_HAL_Driver/Src/stm32l0xx_hal_i2c.c ****                             (link with option I2C_FIRST_AND_NEXT_FRAME).
 117:Drivers/STM32L0xx_HAL_Driver/Src/stm32l0xx_hal_i2c.c ****                             Usage can, transfer several bytes one by one using
 118:Drivers/STM32L0xx_HAL_Driver/Src/stm32l0xx_hal_i2c.c ****                               HAL_I2C_Master_Seq_Transmit_IT
 119:Drivers/STM32L0xx_HAL_Driver/Src/stm32l0xx_hal_i2c.c ****                               or HAL_I2C_Master_Seq_Receive_IT
 120:Drivers/STM32L0xx_HAL_Driver/Src/stm32l0xx_hal_i2c.c ****                               or HAL_I2C_Master_Seq_Transmit_DMA
 121:Drivers/STM32L0xx_HAL_Driver/Src/stm32l0xx_hal_i2c.c ****                               or HAL_I2C_Master_Seq_Receive_DMA
 122:Drivers/STM32L0xx_HAL_Driver/Src/stm32l0xx_hal_i2c.c ****                               with option I2C_FIRST_AND_NEXT_FRAME then I2C_NEXT_FRAME.
 123:Drivers/STM32L0xx_HAL_Driver/Src/stm32l0xx_hal_i2c.c ****                              Then usage of this option I2C_LAST_FRAME_NO_STOP at the last Transmit 
 124:Drivers/STM32L0xx_HAL_Driver/Src/stm32l0xx_hal_i2c.c ****                               Receive sequence permit to call the opposite interface Receive or Tra
 125:Drivers/STM32L0xx_HAL_Driver/Src/stm32l0xx_hal_i2c.c ****                               without stopping the communication and so generate a restart conditio
 126:Drivers/STM32L0xx_HAL_Driver/Src/stm32l0xx_hal_i2c.c ****       (++) I2C_OTHER_FRAME: Sequential usage (Master only), this option allow to manage a restart c
 127:Drivers/STM32L0xx_HAL_Driver/Src/stm32l0xx_hal_i2c.c ****                             each call of the same master sequential
 128:Drivers/STM32L0xx_HAL_Driver/Src/stm32l0xx_hal_i2c.c ****                             interface.
 129:Drivers/STM32L0xx_HAL_Driver/Src/stm32l0xx_hal_i2c.c ****                             Usage can, transfer several bytes one by one with a restart with slave 
 130:Drivers/STM32L0xx_HAL_Driver/Src/stm32l0xx_hal_i2c.c ****                             each bytes using
 131:Drivers/STM32L0xx_HAL_Driver/Src/stm32l0xx_hal_i2c.c ****                               HAL_I2C_Master_Seq_Transmit_IT
 132:Drivers/STM32L0xx_HAL_Driver/Src/stm32l0xx_hal_i2c.c ****                               or HAL_I2C_Master_Seq_Receive_IT
 133:Drivers/STM32L0xx_HAL_Driver/Src/stm32l0xx_hal_i2c.c ****                               or HAL_I2C_Master_Seq_Transmit_DMA
 134:Drivers/STM32L0xx_HAL_Driver/Src/stm32l0xx_hal_i2c.c ****                               or HAL_I2C_Master_Seq_Receive_DMA
 135:Drivers/STM32L0xx_HAL_Driver/Src/stm32l0xx_hal_i2c.c ****                               with option I2C_FIRST_FRAME then I2C_OTHER_FRAME.
 136:Drivers/STM32L0xx_HAL_Driver/Src/stm32l0xx_hal_i2c.c ****                             Then usage of this option I2C_OTHER_AND_LAST_FRAME at the last frame to
 137:Drivers/STM32L0xx_HAL_Driver/Src/stm32l0xx_hal_i2c.c ****                             generation of STOP condition.
 138:Drivers/STM32L0xx_HAL_Driver/Src/stm32l0xx_hal_i2c.c **** 
 139:Drivers/STM32L0xx_HAL_Driver/Src/stm32l0xx_hal_i2c.c ****       (+) Different sequential I2C interfaces are listed below:
 140:Drivers/STM32L0xx_HAL_Driver/Src/stm32l0xx_hal_i2c.c ****       (++) Sequential transmit in master I2C mode an amount of data in non-blocking mode using
 141:Drivers/STM32L0xx_HAL_Driver/Src/stm32l0xx_hal_i2c.c ****             HAL_I2C_Master_Seq_Transmit_IT() or using HAL_I2C_Master_Seq_Transmit_DMA()
 142:Drivers/STM32L0xx_HAL_Driver/Src/stm32l0xx_hal_i2c.c ****       (+++) At transmission end of current frame transfer, HAL_I2C_MasterTxCpltCallback() is execut
 143:Drivers/STM32L0xx_HAL_Driver/Src/stm32l0xx_hal_i2c.c ****             users can add their own code by customization of function pointer HAL_I2C_MasterTxCpltC
 144:Drivers/STM32L0xx_HAL_Driver/Src/stm32l0xx_hal_i2c.c ****       (++) Sequential receive in master I2C mode an amount of data in non-blocking mode using
 145:Drivers/STM32L0xx_HAL_Driver/Src/stm32l0xx_hal_i2c.c ****             HAL_I2C_Master_Seq_Receive_IT() or using HAL_I2C_Master_Seq_Receive_DMA()
 146:Drivers/STM32L0xx_HAL_Driver/Src/stm32l0xx_hal_i2c.c ****       (+++) At reception end of current frame transfer, HAL_I2C_MasterRxCpltCallback() is executed 
ARM GAS  /var/folders/fs/dxwfnrqj18z860lwl3d6f5t00000gn/T//cc1liz9x.s 			page 4


 147:Drivers/STM32L0xx_HAL_Driver/Src/stm32l0xx_hal_i2c.c ****            add their own code by customization of function pointer HAL_I2C_MasterRxCpltCallback()
 148:Drivers/STM32L0xx_HAL_Driver/Src/stm32l0xx_hal_i2c.c ****       (++) Abort a master IT or DMA I2C process communication with Interrupt using HAL_I2C_Master_A
 149:Drivers/STM32L0xx_HAL_Driver/Src/stm32l0xx_hal_i2c.c ****       (+++) End of abort process, HAL_I2C_AbortCpltCallback() is executed and users can
 150:Drivers/STM32L0xx_HAL_Driver/Src/stm32l0xx_hal_i2c.c ****            add their own code by customization of function pointer HAL_I2C_AbortCpltCallback()
 151:Drivers/STM32L0xx_HAL_Driver/Src/stm32l0xx_hal_i2c.c ****       (++) Enable/disable the Address listen mode in slave I2C mode using HAL_I2C_EnableListen_IT()
 152:Drivers/STM32L0xx_HAL_Driver/Src/stm32l0xx_hal_i2c.c ****             HAL_I2C_DisableListen_IT()
 153:Drivers/STM32L0xx_HAL_Driver/Src/stm32l0xx_hal_i2c.c ****       (+++) When address slave I2C match, HAL_I2C_AddrCallback() is executed and users can
 154:Drivers/STM32L0xx_HAL_Driver/Src/stm32l0xx_hal_i2c.c ****            add their own code to check the Address Match Code and the transmission direction reques
 155:Drivers/STM32L0xx_HAL_Driver/Src/stm32l0xx_hal_i2c.c ****            (Write/Read).
 156:Drivers/STM32L0xx_HAL_Driver/Src/stm32l0xx_hal_i2c.c ****       (+++) At Listen mode end HAL_I2C_ListenCpltCallback() is executed and users can
 157:Drivers/STM32L0xx_HAL_Driver/Src/stm32l0xx_hal_i2c.c ****           add their own code by customization of function pointer HAL_I2C_ListenCpltCallback()
 158:Drivers/STM32L0xx_HAL_Driver/Src/stm32l0xx_hal_i2c.c ****       (++) Sequential transmit in slave I2C mode an amount of data in non-blocking mode using
 159:Drivers/STM32L0xx_HAL_Driver/Src/stm32l0xx_hal_i2c.c ****             HAL_I2C_Slave_Seq_Transmit_IT() or using HAL_I2C_Slave_Seq_Transmit_DMA()
 160:Drivers/STM32L0xx_HAL_Driver/Src/stm32l0xx_hal_i2c.c ****       (+++) At transmission end of current frame transfer, HAL_I2C_SlaveTxCpltCallback() is execute
 161:Drivers/STM32L0xx_HAL_Driver/Src/stm32l0xx_hal_i2c.c ****             users can add their own code by customization of function pointer HAL_I2C_SlaveTxCpltCa
 162:Drivers/STM32L0xx_HAL_Driver/Src/stm32l0xx_hal_i2c.c ****       (++) Sequential receive in slave I2C mode an amount of data in non-blocking mode using
 163:Drivers/STM32L0xx_HAL_Driver/Src/stm32l0xx_hal_i2c.c ****             HAL_I2C_Slave_Seq_Receive_IT() or using HAL_I2C_Slave_Seq_Receive_DMA()
 164:Drivers/STM32L0xx_HAL_Driver/Src/stm32l0xx_hal_i2c.c ****       (+++) At reception end of current frame transfer, HAL_I2C_SlaveRxCpltCallback() is executed a
 165:Drivers/STM32L0xx_HAL_Driver/Src/stm32l0xx_hal_i2c.c ****            add their own code by customization of function pointer HAL_I2C_SlaveRxCpltCallback()
 166:Drivers/STM32L0xx_HAL_Driver/Src/stm32l0xx_hal_i2c.c ****       (++) In case of transfer Error, HAL_I2C_ErrorCallback() function is executed and users can
 167:Drivers/STM32L0xx_HAL_Driver/Src/stm32l0xx_hal_i2c.c ****            add their own code by customization of function pointer HAL_I2C_ErrorCallback()
 168:Drivers/STM32L0xx_HAL_Driver/Src/stm32l0xx_hal_i2c.c ****       (++) Discard a slave I2C process communication using __HAL_I2C_GENERATE_NACK() macro.
 169:Drivers/STM32L0xx_HAL_Driver/Src/stm32l0xx_hal_i2c.c ****            This action will inform Master to generate a Stop condition to discard the communication
 170:Drivers/STM32L0xx_HAL_Driver/Src/stm32l0xx_hal_i2c.c **** 
 171:Drivers/STM32L0xx_HAL_Driver/Src/stm32l0xx_hal_i2c.c ****     *** Interrupt mode IO MEM operation ***
 172:Drivers/STM32L0xx_HAL_Driver/Src/stm32l0xx_hal_i2c.c ****     =======================================
 173:Drivers/STM32L0xx_HAL_Driver/Src/stm32l0xx_hal_i2c.c ****     [..]
 174:Drivers/STM32L0xx_HAL_Driver/Src/stm32l0xx_hal_i2c.c ****       (+) Write an amount of data in non-blocking mode with Interrupt to a specific memory address 
 175:Drivers/STM32L0xx_HAL_Driver/Src/stm32l0xx_hal_i2c.c ****           HAL_I2C_Mem_Write_IT()
 176:Drivers/STM32L0xx_HAL_Driver/Src/stm32l0xx_hal_i2c.c ****       (+) At Memory end of write transfer, HAL_I2C_MemTxCpltCallback() is executed and users can
 177:Drivers/STM32L0xx_HAL_Driver/Src/stm32l0xx_hal_i2c.c ****            add their own code by customization of function pointer HAL_I2C_MemTxCpltCallback()
 178:Drivers/STM32L0xx_HAL_Driver/Src/stm32l0xx_hal_i2c.c ****       (+) Read an amount of data in non-blocking mode with Interrupt from a specific memory address
 179:Drivers/STM32L0xx_HAL_Driver/Src/stm32l0xx_hal_i2c.c ****           HAL_I2C_Mem_Read_IT()
 180:Drivers/STM32L0xx_HAL_Driver/Src/stm32l0xx_hal_i2c.c ****       (+) At Memory end of read transfer, HAL_I2C_MemRxCpltCallback() is executed and users can
 181:Drivers/STM32L0xx_HAL_Driver/Src/stm32l0xx_hal_i2c.c ****            add their own code by customization of function pointer HAL_I2C_MemRxCpltCallback()
 182:Drivers/STM32L0xx_HAL_Driver/Src/stm32l0xx_hal_i2c.c ****       (+) In case of transfer Error, HAL_I2C_ErrorCallback() function is executed and users can
 183:Drivers/STM32L0xx_HAL_Driver/Src/stm32l0xx_hal_i2c.c ****            add their own code by customization of function pointer HAL_I2C_ErrorCallback()
 184:Drivers/STM32L0xx_HAL_Driver/Src/stm32l0xx_hal_i2c.c **** 
 185:Drivers/STM32L0xx_HAL_Driver/Src/stm32l0xx_hal_i2c.c ****     *** DMA mode IO operation ***
 186:Drivers/STM32L0xx_HAL_Driver/Src/stm32l0xx_hal_i2c.c ****     ==============================
 187:Drivers/STM32L0xx_HAL_Driver/Src/stm32l0xx_hal_i2c.c ****     [..]
 188:Drivers/STM32L0xx_HAL_Driver/Src/stm32l0xx_hal_i2c.c ****       (+) Transmit in master mode an amount of data in non-blocking mode (DMA) using
 189:Drivers/STM32L0xx_HAL_Driver/Src/stm32l0xx_hal_i2c.c ****           HAL_I2C_Master_Transmit_DMA()
 190:Drivers/STM32L0xx_HAL_Driver/Src/stm32l0xx_hal_i2c.c ****       (+) At transmission end of transfer, HAL_I2C_MasterTxCpltCallback() is executed and users can
 191:Drivers/STM32L0xx_HAL_Driver/Src/stm32l0xx_hal_i2c.c ****            add their own code by customization of function pointer HAL_I2C_MasterTxCpltCallback()
 192:Drivers/STM32L0xx_HAL_Driver/Src/stm32l0xx_hal_i2c.c ****       (+) Receive in master mode an amount of data in non-blocking mode (DMA) using
 193:Drivers/STM32L0xx_HAL_Driver/Src/stm32l0xx_hal_i2c.c ****           HAL_I2C_Master_Receive_DMA()
 194:Drivers/STM32L0xx_HAL_Driver/Src/stm32l0xx_hal_i2c.c ****       (+) At reception end of transfer, HAL_I2C_MasterRxCpltCallback() is executed and users can
 195:Drivers/STM32L0xx_HAL_Driver/Src/stm32l0xx_hal_i2c.c ****            add their own code by customization of function pointer HAL_I2C_MasterRxCpltCallback()
 196:Drivers/STM32L0xx_HAL_Driver/Src/stm32l0xx_hal_i2c.c ****       (+) Transmit in slave mode an amount of data in non-blocking mode (DMA) using
 197:Drivers/STM32L0xx_HAL_Driver/Src/stm32l0xx_hal_i2c.c ****           HAL_I2C_Slave_Transmit_DMA()
 198:Drivers/STM32L0xx_HAL_Driver/Src/stm32l0xx_hal_i2c.c ****       (+) At transmission end of transfer, HAL_I2C_SlaveTxCpltCallback() is executed and users can
 199:Drivers/STM32L0xx_HAL_Driver/Src/stm32l0xx_hal_i2c.c ****            add their own code by customization of function pointer HAL_I2C_SlaveTxCpltCallback()
 200:Drivers/STM32L0xx_HAL_Driver/Src/stm32l0xx_hal_i2c.c ****       (+) Receive in slave mode an amount of data in non-blocking mode (DMA) using
 201:Drivers/STM32L0xx_HAL_Driver/Src/stm32l0xx_hal_i2c.c ****           HAL_I2C_Slave_Receive_DMA()
 202:Drivers/STM32L0xx_HAL_Driver/Src/stm32l0xx_hal_i2c.c ****       (+) At reception end of transfer, HAL_I2C_SlaveRxCpltCallback() is executed and users can
 203:Drivers/STM32L0xx_HAL_Driver/Src/stm32l0xx_hal_i2c.c ****            add their own code by customization of function pointer HAL_I2C_SlaveRxCpltCallback()
ARM GAS  /var/folders/fs/dxwfnrqj18z860lwl3d6f5t00000gn/T//cc1liz9x.s 			page 5


 204:Drivers/STM32L0xx_HAL_Driver/Src/stm32l0xx_hal_i2c.c ****       (+) In case of transfer Error, HAL_I2C_ErrorCallback() function is executed and users can
 205:Drivers/STM32L0xx_HAL_Driver/Src/stm32l0xx_hal_i2c.c ****            add their own code by customization of function pointer HAL_I2C_ErrorCallback()
 206:Drivers/STM32L0xx_HAL_Driver/Src/stm32l0xx_hal_i2c.c ****       (+) Abort a master I2C process communication with Interrupt using HAL_I2C_Master_Abort_IT()
 207:Drivers/STM32L0xx_HAL_Driver/Src/stm32l0xx_hal_i2c.c ****       (+) End of abort process, HAL_I2C_AbortCpltCallback() is executed and users can
 208:Drivers/STM32L0xx_HAL_Driver/Src/stm32l0xx_hal_i2c.c ****            add their own code by customization of function pointer HAL_I2C_AbortCpltCallback()
 209:Drivers/STM32L0xx_HAL_Driver/Src/stm32l0xx_hal_i2c.c ****       (+) Discard a slave I2C process communication using __HAL_I2C_GENERATE_NACK() macro.
 210:Drivers/STM32L0xx_HAL_Driver/Src/stm32l0xx_hal_i2c.c ****            This action will inform Master to generate a Stop condition to discard the communication
 211:Drivers/STM32L0xx_HAL_Driver/Src/stm32l0xx_hal_i2c.c **** 
 212:Drivers/STM32L0xx_HAL_Driver/Src/stm32l0xx_hal_i2c.c ****     *** DMA mode IO MEM operation ***
 213:Drivers/STM32L0xx_HAL_Driver/Src/stm32l0xx_hal_i2c.c ****     =================================
 214:Drivers/STM32L0xx_HAL_Driver/Src/stm32l0xx_hal_i2c.c ****     [..]
 215:Drivers/STM32L0xx_HAL_Driver/Src/stm32l0xx_hal_i2c.c ****       (+) Write an amount of data in non-blocking mode with DMA to a specific memory address using
 216:Drivers/STM32L0xx_HAL_Driver/Src/stm32l0xx_hal_i2c.c ****           HAL_I2C_Mem_Write_DMA()
 217:Drivers/STM32L0xx_HAL_Driver/Src/stm32l0xx_hal_i2c.c ****       (+) At Memory end of write transfer, HAL_I2C_MemTxCpltCallback() is executed and users can
 218:Drivers/STM32L0xx_HAL_Driver/Src/stm32l0xx_hal_i2c.c ****            add their own code by customization of function pointer HAL_I2C_MemTxCpltCallback()
 219:Drivers/STM32L0xx_HAL_Driver/Src/stm32l0xx_hal_i2c.c ****       (+) Read an amount of data in non-blocking mode with DMA from a specific memory address using
 220:Drivers/STM32L0xx_HAL_Driver/Src/stm32l0xx_hal_i2c.c ****           HAL_I2C_Mem_Read_DMA()
 221:Drivers/STM32L0xx_HAL_Driver/Src/stm32l0xx_hal_i2c.c ****       (+) At Memory end of read transfer, HAL_I2C_MemRxCpltCallback() is executed and users can
 222:Drivers/STM32L0xx_HAL_Driver/Src/stm32l0xx_hal_i2c.c ****            add their own code by customization of function pointer HAL_I2C_MemRxCpltCallback()
 223:Drivers/STM32L0xx_HAL_Driver/Src/stm32l0xx_hal_i2c.c ****       (+) In case of transfer Error, HAL_I2C_ErrorCallback() function is executed and users can
 224:Drivers/STM32L0xx_HAL_Driver/Src/stm32l0xx_hal_i2c.c ****            add their own code by customization of function pointer HAL_I2C_ErrorCallback()
 225:Drivers/STM32L0xx_HAL_Driver/Src/stm32l0xx_hal_i2c.c **** 
 226:Drivers/STM32L0xx_HAL_Driver/Src/stm32l0xx_hal_i2c.c **** 
 227:Drivers/STM32L0xx_HAL_Driver/Src/stm32l0xx_hal_i2c.c ****      *** I2C HAL driver macros list ***
 228:Drivers/STM32L0xx_HAL_Driver/Src/stm32l0xx_hal_i2c.c ****      ==================================
 229:Drivers/STM32L0xx_HAL_Driver/Src/stm32l0xx_hal_i2c.c ****      [..]
 230:Drivers/STM32L0xx_HAL_Driver/Src/stm32l0xx_hal_i2c.c ****        Below the list of most used macros in I2C HAL driver.
 231:Drivers/STM32L0xx_HAL_Driver/Src/stm32l0xx_hal_i2c.c **** 
 232:Drivers/STM32L0xx_HAL_Driver/Src/stm32l0xx_hal_i2c.c ****       (+) __HAL_I2C_ENABLE: Enable the I2C peripheral
 233:Drivers/STM32L0xx_HAL_Driver/Src/stm32l0xx_hal_i2c.c ****       (+) __HAL_I2C_DISABLE: Disable the I2C peripheral
 234:Drivers/STM32L0xx_HAL_Driver/Src/stm32l0xx_hal_i2c.c ****       (+) __HAL_I2C_GENERATE_NACK: Generate a Non-Acknowledge I2C peripheral in Slave mode
 235:Drivers/STM32L0xx_HAL_Driver/Src/stm32l0xx_hal_i2c.c ****       (+) __HAL_I2C_GET_FLAG: Check whether the specified I2C flag is set or not
 236:Drivers/STM32L0xx_HAL_Driver/Src/stm32l0xx_hal_i2c.c ****       (+) __HAL_I2C_CLEAR_FLAG: Clear the specified I2C pending flag
 237:Drivers/STM32L0xx_HAL_Driver/Src/stm32l0xx_hal_i2c.c ****       (+) __HAL_I2C_ENABLE_IT: Enable the specified I2C interrupt
 238:Drivers/STM32L0xx_HAL_Driver/Src/stm32l0xx_hal_i2c.c ****       (+) __HAL_I2C_DISABLE_IT: Disable the specified I2C interrupt
 239:Drivers/STM32L0xx_HAL_Driver/Src/stm32l0xx_hal_i2c.c **** 
 240:Drivers/STM32L0xx_HAL_Driver/Src/stm32l0xx_hal_i2c.c ****      *** Callback registration ***
 241:Drivers/STM32L0xx_HAL_Driver/Src/stm32l0xx_hal_i2c.c ****      =============================================
 242:Drivers/STM32L0xx_HAL_Driver/Src/stm32l0xx_hal_i2c.c ****     [..]
 243:Drivers/STM32L0xx_HAL_Driver/Src/stm32l0xx_hal_i2c.c ****      The compilation flag USE_HAL_I2C_REGISTER_CALLBACKS when set to 1
 244:Drivers/STM32L0xx_HAL_Driver/Src/stm32l0xx_hal_i2c.c ****      allows the user to configure dynamically the driver callbacks.
 245:Drivers/STM32L0xx_HAL_Driver/Src/stm32l0xx_hal_i2c.c ****      Use Functions HAL_I2C_RegisterCallback() or HAL_I2C_RegisterAddrCallback()
 246:Drivers/STM32L0xx_HAL_Driver/Src/stm32l0xx_hal_i2c.c ****      to register an interrupt callback.
 247:Drivers/STM32L0xx_HAL_Driver/Src/stm32l0xx_hal_i2c.c ****     [..]
 248:Drivers/STM32L0xx_HAL_Driver/Src/stm32l0xx_hal_i2c.c ****      Function HAL_I2C_RegisterCallback() allows to register following callbacks:
 249:Drivers/STM32L0xx_HAL_Driver/Src/stm32l0xx_hal_i2c.c ****        (+) MasterTxCpltCallback : callback for Master transmission end of transfer.
 250:Drivers/STM32L0xx_HAL_Driver/Src/stm32l0xx_hal_i2c.c ****        (+) MasterRxCpltCallback : callback for Master reception end of transfer.
 251:Drivers/STM32L0xx_HAL_Driver/Src/stm32l0xx_hal_i2c.c ****        (+) SlaveTxCpltCallback  : callback for Slave transmission end of transfer.
 252:Drivers/STM32L0xx_HAL_Driver/Src/stm32l0xx_hal_i2c.c ****        (+) SlaveRxCpltCallback  : callback for Slave reception end of transfer.
 253:Drivers/STM32L0xx_HAL_Driver/Src/stm32l0xx_hal_i2c.c ****        (+) ListenCpltCallback   : callback for end of listen mode.
 254:Drivers/STM32L0xx_HAL_Driver/Src/stm32l0xx_hal_i2c.c ****        (+) MemTxCpltCallback    : callback for Memory transmission end of transfer.
 255:Drivers/STM32L0xx_HAL_Driver/Src/stm32l0xx_hal_i2c.c ****        (+) MemRxCpltCallback    : callback for Memory reception end of transfer.
 256:Drivers/STM32L0xx_HAL_Driver/Src/stm32l0xx_hal_i2c.c ****        (+) ErrorCallback        : callback for error detection.
 257:Drivers/STM32L0xx_HAL_Driver/Src/stm32l0xx_hal_i2c.c ****        (+) AbortCpltCallback    : callback for abort completion process.
 258:Drivers/STM32L0xx_HAL_Driver/Src/stm32l0xx_hal_i2c.c ****        (+) MspInitCallback      : callback for Msp Init.
 259:Drivers/STM32L0xx_HAL_Driver/Src/stm32l0xx_hal_i2c.c ****        (+) MspDeInitCallback    : callback for Msp DeInit.
 260:Drivers/STM32L0xx_HAL_Driver/Src/stm32l0xx_hal_i2c.c ****      This function takes as parameters the HAL peripheral handle, the Callback ID
ARM GAS  /var/folders/fs/dxwfnrqj18z860lwl3d6f5t00000gn/T//cc1liz9x.s 			page 6


 261:Drivers/STM32L0xx_HAL_Driver/Src/stm32l0xx_hal_i2c.c ****      and a pointer to the user callback function.
 262:Drivers/STM32L0xx_HAL_Driver/Src/stm32l0xx_hal_i2c.c ****     [..]
 263:Drivers/STM32L0xx_HAL_Driver/Src/stm32l0xx_hal_i2c.c ****      For specific callback AddrCallback use dedicated register callbacks : HAL_I2C_RegisterAddrCall
 264:Drivers/STM32L0xx_HAL_Driver/Src/stm32l0xx_hal_i2c.c ****     [..]
 265:Drivers/STM32L0xx_HAL_Driver/Src/stm32l0xx_hal_i2c.c ****      Use function HAL_I2C_UnRegisterCallback to reset a callback to the default
 266:Drivers/STM32L0xx_HAL_Driver/Src/stm32l0xx_hal_i2c.c ****      weak function.
 267:Drivers/STM32L0xx_HAL_Driver/Src/stm32l0xx_hal_i2c.c ****      HAL_I2C_UnRegisterCallback takes as parameters the HAL peripheral handle,
 268:Drivers/STM32L0xx_HAL_Driver/Src/stm32l0xx_hal_i2c.c ****      and the Callback ID.
 269:Drivers/STM32L0xx_HAL_Driver/Src/stm32l0xx_hal_i2c.c ****      This function allows to reset following callbacks:
 270:Drivers/STM32L0xx_HAL_Driver/Src/stm32l0xx_hal_i2c.c ****        (+) MasterTxCpltCallback : callback for Master transmission end of transfer.
 271:Drivers/STM32L0xx_HAL_Driver/Src/stm32l0xx_hal_i2c.c ****        (+) MasterRxCpltCallback : callback for Master reception end of transfer.
 272:Drivers/STM32L0xx_HAL_Driver/Src/stm32l0xx_hal_i2c.c ****        (+) SlaveTxCpltCallback  : callback for Slave transmission end of transfer.
 273:Drivers/STM32L0xx_HAL_Driver/Src/stm32l0xx_hal_i2c.c ****        (+) SlaveRxCpltCallback  : callback for Slave reception end of transfer.
 274:Drivers/STM32L0xx_HAL_Driver/Src/stm32l0xx_hal_i2c.c ****        (+) ListenCpltCallback   : callback for end of listen mode.
 275:Drivers/STM32L0xx_HAL_Driver/Src/stm32l0xx_hal_i2c.c ****        (+) MemTxCpltCallback    : callback for Memory transmission end of transfer.
 276:Drivers/STM32L0xx_HAL_Driver/Src/stm32l0xx_hal_i2c.c ****        (+) MemRxCpltCallback    : callback for Memory reception end of transfer.
 277:Drivers/STM32L0xx_HAL_Driver/Src/stm32l0xx_hal_i2c.c ****        (+) ErrorCallback        : callback for error detection.
 278:Drivers/STM32L0xx_HAL_Driver/Src/stm32l0xx_hal_i2c.c ****        (+) AbortCpltCallback    : callback for abort completion process.
 279:Drivers/STM32L0xx_HAL_Driver/Src/stm32l0xx_hal_i2c.c ****        (+) MspInitCallback      : callback for Msp Init.
 280:Drivers/STM32L0xx_HAL_Driver/Src/stm32l0xx_hal_i2c.c ****        (+) MspDeInitCallback    : callback for Msp DeInit.
 281:Drivers/STM32L0xx_HAL_Driver/Src/stm32l0xx_hal_i2c.c ****     [..]
 282:Drivers/STM32L0xx_HAL_Driver/Src/stm32l0xx_hal_i2c.c ****      For callback AddrCallback use dedicated register callbacks : HAL_I2C_UnRegisterAddrCallback().
 283:Drivers/STM32L0xx_HAL_Driver/Src/stm32l0xx_hal_i2c.c ****     [..]
 284:Drivers/STM32L0xx_HAL_Driver/Src/stm32l0xx_hal_i2c.c ****      By default, after the HAL_I2C_Init() and when the state is HAL_I2C_STATE_RESET
 285:Drivers/STM32L0xx_HAL_Driver/Src/stm32l0xx_hal_i2c.c ****      all callbacks are set to the corresponding weak functions:
 286:Drivers/STM32L0xx_HAL_Driver/Src/stm32l0xx_hal_i2c.c ****      examples HAL_I2C_MasterTxCpltCallback(), HAL_I2C_MasterRxCpltCallback().
 287:Drivers/STM32L0xx_HAL_Driver/Src/stm32l0xx_hal_i2c.c ****      Exception done for MspInit and MspDeInit functions that are
 288:Drivers/STM32L0xx_HAL_Driver/Src/stm32l0xx_hal_i2c.c ****      reset to the legacy weak functions in the HAL_I2C_Init()/ HAL_I2C_DeInit() only when
 289:Drivers/STM32L0xx_HAL_Driver/Src/stm32l0xx_hal_i2c.c ****      these callbacks are null (not registered beforehand).
 290:Drivers/STM32L0xx_HAL_Driver/Src/stm32l0xx_hal_i2c.c ****      If MspInit or MspDeInit are not null, the HAL_I2C_Init()/ HAL_I2C_DeInit()
 291:Drivers/STM32L0xx_HAL_Driver/Src/stm32l0xx_hal_i2c.c ****      keep and use the user MspInit/MspDeInit callbacks (registered beforehand) whatever the state.
 292:Drivers/STM32L0xx_HAL_Driver/Src/stm32l0xx_hal_i2c.c ****     [..]
 293:Drivers/STM32L0xx_HAL_Driver/Src/stm32l0xx_hal_i2c.c ****      Callbacks can be registered/unregistered in HAL_I2C_STATE_READY state only.
 294:Drivers/STM32L0xx_HAL_Driver/Src/stm32l0xx_hal_i2c.c ****      Exception done MspInit/MspDeInit functions that can be registered/unregistered
 295:Drivers/STM32L0xx_HAL_Driver/Src/stm32l0xx_hal_i2c.c ****      in HAL_I2C_STATE_READY or HAL_I2C_STATE_RESET state,
 296:Drivers/STM32L0xx_HAL_Driver/Src/stm32l0xx_hal_i2c.c ****      thus registered (user) MspInit/DeInit callbacks can be used during the Init/DeInit.
 297:Drivers/STM32L0xx_HAL_Driver/Src/stm32l0xx_hal_i2c.c ****      Then, the user first registers the MspInit/MspDeInit user callbacks
 298:Drivers/STM32L0xx_HAL_Driver/Src/stm32l0xx_hal_i2c.c ****      using HAL_I2C_RegisterCallback() before calling HAL_I2C_DeInit()
 299:Drivers/STM32L0xx_HAL_Driver/Src/stm32l0xx_hal_i2c.c ****      or HAL_I2C_Init() function.
 300:Drivers/STM32L0xx_HAL_Driver/Src/stm32l0xx_hal_i2c.c ****     [..]
 301:Drivers/STM32L0xx_HAL_Driver/Src/stm32l0xx_hal_i2c.c ****      When the compilation flag USE_HAL_I2C_REGISTER_CALLBACKS is set to 0 or
 302:Drivers/STM32L0xx_HAL_Driver/Src/stm32l0xx_hal_i2c.c ****      not defined, the callback registration feature is not available and all callbacks
 303:Drivers/STM32L0xx_HAL_Driver/Src/stm32l0xx_hal_i2c.c ****      are set to the corresponding weak functions.
 304:Drivers/STM32L0xx_HAL_Driver/Src/stm32l0xx_hal_i2c.c **** 
 305:Drivers/STM32L0xx_HAL_Driver/Src/stm32l0xx_hal_i2c.c ****      [..]
 306:Drivers/STM32L0xx_HAL_Driver/Src/stm32l0xx_hal_i2c.c ****        (@) You can refer to the I2C HAL driver header file for more useful macros
 307:Drivers/STM32L0xx_HAL_Driver/Src/stm32l0xx_hal_i2c.c **** 
 308:Drivers/STM32L0xx_HAL_Driver/Src/stm32l0xx_hal_i2c.c ****   @endverbatim
 309:Drivers/STM32L0xx_HAL_Driver/Src/stm32l0xx_hal_i2c.c ****   ******************************************************************************
 310:Drivers/STM32L0xx_HAL_Driver/Src/stm32l0xx_hal_i2c.c ****   * @attention
 311:Drivers/STM32L0xx_HAL_Driver/Src/stm32l0xx_hal_i2c.c ****   *
 312:Drivers/STM32L0xx_HAL_Driver/Src/stm32l0xx_hal_i2c.c ****   * <h2><center>&copy; Copyright (c) 2016 STMicroelectronics.
 313:Drivers/STM32L0xx_HAL_Driver/Src/stm32l0xx_hal_i2c.c ****   * All rights reserved.</center></h2>
 314:Drivers/STM32L0xx_HAL_Driver/Src/stm32l0xx_hal_i2c.c ****   *
 315:Drivers/STM32L0xx_HAL_Driver/Src/stm32l0xx_hal_i2c.c ****   * This software component is licensed by ST under BSD 3-Clause license,
 316:Drivers/STM32L0xx_HAL_Driver/Src/stm32l0xx_hal_i2c.c ****   * the "License"; You may not use this file except in compliance with the
 317:Drivers/STM32L0xx_HAL_Driver/Src/stm32l0xx_hal_i2c.c ****   * License. You may obtain a copy of the License at:
ARM GAS  /var/folders/fs/dxwfnrqj18z860lwl3d6f5t00000gn/T//cc1liz9x.s 			page 7


 318:Drivers/STM32L0xx_HAL_Driver/Src/stm32l0xx_hal_i2c.c ****   *                        opensource.org/licenses/BSD-3-Clause
 319:Drivers/STM32L0xx_HAL_Driver/Src/stm32l0xx_hal_i2c.c ****   *
 320:Drivers/STM32L0xx_HAL_Driver/Src/stm32l0xx_hal_i2c.c ****   ******************************************************************************
 321:Drivers/STM32L0xx_HAL_Driver/Src/stm32l0xx_hal_i2c.c ****   */
 322:Drivers/STM32L0xx_HAL_Driver/Src/stm32l0xx_hal_i2c.c **** 
 323:Drivers/STM32L0xx_HAL_Driver/Src/stm32l0xx_hal_i2c.c **** /* Includes ------------------------------------------------------------------*/
 324:Drivers/STM32L0xx_HAL_Driver/Src/stm32l0xx_hal_i2c.c **** #include "stm32l0xx_hal.h"
 325:Drivers/STM32L0xx_HAL_Driver/Src/stm32l0xx_hal_i2c.c **** 
 326:Drivers/STM32L0xx_HAL_Driver/Src/stm32l0xx_hal_i2c.c **** /** @addtogroup STM32L0xx_HAL_Driver
 327:Drivers/STM32L0xx_HAL_Driver/Src/stm32l0xx_hal_i2c.c ****   * @{
 328:Drivers/STM32L0xx_HAL_Driver/Src/stm32l0xx_hal_i2c.c ****   */
 329:Drivers/STM32L0xx_HAL_Driver/Src/stm32l0xx_hal_i2c.c **** 
 330:Drivers/STM32L0xx_HAL_Driver/Src/stm32l0xx_hal_i2c.c **** /** @defgroup I2C I2C
 331:Drivers/STM32L0xx_HAL_Driver/Src/stm32l0xx_hal_i2c.c ****   * @brief I2C HAL module driver
 332:Drivers/STM32L0xx_HAL_Driver/Src/stm32l0xx_hal_i2c.c ****   * @{
 333:Drivers/STM32L0xx_HAL_Driver/Src/stm32l0xx_hal_i2c.c ****   */
 334:Drivers/STM32L0xx_HAL_Driver/Src/stm32l0xx_hal_i2c.c **** 
 335:Drivers/STM32L0xx_HAL_Driver/Src/stm32l0xx_hal_i2c.c **** #ifdef HAL_I2C_MODULE_ENABLED
 336:Drivers/STM32L0xx_HAL_Driver/Src/stm32l0xx_hal_i2c.c **** 
 337:Drivers/STM32L0xx_HAL_Driver/Src/stm32l0xx_hal_i2c.c **** /* Private typedef -----------------------------------------------------------*/
 338:Drivers/STM32L0xx_HAL_Driver/Src/stm32l0xx_hal_i2c.c **** /* Private define ------------------------------------------------------------*/
 339:Drivers/STM32L0xx_HAL_Driver/Src/stm32l0xx_hal_i2c.c **** 
 340:Drivers/STM32L0xx_HAL_Driver/Src/stm32l0xx_hal_i2c.c **** /** @defgroup I2C_Private_Define I2C Private Define
 341:Drivers/STM32L0xx_HAL_Driver/Src/stm32l0xx_hal_i2c.c ****   * @{
 342:Drivers/STM32L0xx_HAL_Driver/Src/stm32l0xx_hal_i2c.c ****   */
 343:Drivers/STM32L0xx_HAL_Driver/Src/stm32l0xx_hal_i2c.c **** #define TIMING_CLEAR_MASK   (0xF0FFFFFFU)  /*!< I2C TIMING clear register Mask */
 344:Drivers/STM32L0xx_HAL_Driver/Src/stm32l0xx_hal_i2c.c **** #define I2C_TIMEOUT_ADDR    (10000U)       /*!< 10 s  */
 345:Drivers/STM32L0xx_HAL_Driver/Src/stm32l0xx_hal_i2c.c **** #define I2C_TIMEOUT_BUSY    (25U)          /*!< 25 ms */
 346:Drivers/STM32L0xx_HAL_Driver/Src/stm32l0xx_hal_i2c.c **** #define I2C_TIMEOUT_DIR     (25U)          /*!< 25 ms */
 347:Drivers/STM32L0xx_HAL_Driver/Src/stm32l0xx_hal_i2c.c **** #define I2C_TIMEOUT_RXNE    (25U)          /*!< 25 ms */
 348:Drivers/STM32L0xx_HAL_Driver/Src/stm32l0xx_hal_i2c.c **** #define I2C_TIMEOUT_STOPF   (25U)          /*!< 25 ms */
 349:Drivers/STM32L0xx_HAL_Driver/Src/stm32l0xx_hal_i2c.c **** #define I2C_TIMEOUT_TC      (25U)          /*!< 25 ms */
 350:Drivers/STM32L0xx_HAL_Driver/Src/stm32l0xx_hal_i2c.c **** #define I2C_TIMEOUT_TCR     (25U)          /*!< 25 ms */
 351:Drivers/STM32L0xx_HAL_Driver/Src/stm32l0xx_hal_i2c.c **** #define I2C_TIMEOUT_TXIS    (25U)          /*!< 25 ms */
 352:Drivers/STM32L0xx_HAL_Driver/Src/stm32l0xx_hal_i2c.c **** #define I2C_TIMEOUT_FLAG    (25U)          /*!< 25 ms */
 353:Drivers/STM32L0xx_HAL_Driver/Src/stm32l0xx_hal_i2c.c **** 
 354:Drivers/STM32L0xx_HAL_Driver/Src/stm32l0xx_hal_i2c.c **** #define MAX_NBYTE_SIZE      255U
 355:Drivers/STM32L0xx_HAL_Driver/Src/stm32l0xx_hal_i2c.c **** #define SLAVE_ADDR_SHIFT     7U
 356:Drivers/STM32L0xx_HAL_Driver/Src/stm32l0xx_hal_i2c.c **** #define SLAVE_ADDR_MSK       0x06U
 357:Drivers/STM32L0xx_HAL_Driver/Src/stm32l0xx_hal_i2c.c **** 
 358:Drivers/STM32L0xx_HAL_Driver/Src/stm32l0xx_hal_i2c.c **** /* Private define for @ref PreviousState usage */
 359:Drivers/STM32L0xx_HAL_Driver/Src/stm32l0xx_hal_i2c.c **** #define I2C_STATE_MSK             ((uint32_t)((uint32_t)((uint32_t)HAL_I2C_STATE_BUSY_TX | \
 360:Drivers/STM32L0xx_HAL_Driver/Src/stm32l0xx_hal_i2c.c ****                                                          (uint32_t)HAL_I2C_STATE_BUSY_RX) & \
 361:Drivers/STM32L0xx_HAL_Driver/Src/stm32l0xx_hal_i2c.c ****                                               (uint32_t)(~((uint32_t)HAL_I2C_STATE_READY))))
 362:Drivers/STM32L0xx_HAL_Driver/Src/stm32l0xx_hal_i2c.c **** /*!< Mask State define, keep only RX and TX bits */
 363:Drivers/STM32L0xx_HAL_Driver/Src/stm32l0xx_hal_i2c.c **** #define I2C_STATE_NONE            ((uint32_t)(HAL_I2C_MODE_NONE))
 364:Drivers/STM32L0xx_HAL_Driver/Src/stm32l0xx_hal_i2c.c **** /*!< Default Value */
 365:Drivers/STM32L0xx_HAL_Driver/Src/stm32l0xx_hal_i2c.c **** #define I2C_STATE_MASTER_BUSY_TX  ((uint32_t)(((uint32_t)HAL_I2C_STATE_BUSY_TX & I2C_STATE_MSK) | \
 366:Drivers/STM32L0xx_HAL_Driver/Src/stm32l0xx_hal_i2c.c ****                                               (uint32_t)HAL_I2C_MODE_MASTER))
 367:Drivers/STM32L0xx_HAL_Driver/Src/stm32l0xx_hal_i2c.c **** /*!< Master Busy TX, combinaison of State LSB and Mode enum */
 368:Drivers/STM32L0xx_HAL_Driver/Src/stm32l0xx_hal_i2c.c **** #define I2C_STATE_MASTER_BUSY_RX  ((uint32_t)(((uint32_t)HAL_I2C_STATE_BUSY_RX & I2C_STATE_MSK) | \
 369:Drivers/STM32L0xx_HAL_Driver/Src/stm32l0xx_hal_i2c.c ****                                               (uint32_t)HAL_I2C_MODE_MASTER))
 370:Drivers/STM32L0xx_HAL_Driver/Src/stm32l0xx_hal_i2c.c **** /*!< Master Busy RX, combinaison of State LSB and Mode enum */
 371:Drivers/STM32L0xx_HAL_Driver/Src/stm32l0xx_hal_i2c.c **** #define I2C_STATE_SLAVE_BUSY_TX   ((uint32_t)(((uint32_t)HAL_I2C_STATE_BUSY_TX & I2C_STATE_MSK) | \
 372:Drivers/STM32L0xx_HAL_Driver/Src/stm32l0xx_hal_i2c.c ****                                               (uint32_t)HAL_I2C_MODE_SLAVE))
 373:Drivers/STM32L0xx_HAL_Driver/Src/stm32l0xx_hal_i2c.c **** /*!< Slave Busy TX, combinaison of State LSB and Mode enum */
 374:Drivers/STM32L0xx_HAL_Driver/Src/stm32l0xx_hal_i2c.c **** #define I2C_STATE_SLAVE_BUSY_RX   ((uint32_t)(((uint32_t)HAL_I2C_STATE_BUSY_RX & I2C_STATE_MSK) | \
ARM GAS  /var/folders/fs/dxwfnrqj18z860lwl3d6f5t00000gn/T//cc1liz9x.s 			page 8


 375:Drivers/STM32L0xx_HAL_Driver/Src/stm32l0xx_hal_i2c.c ****                                               (uint32_t)HAL_I2C_MODE_SLAVE))
 376:Drivers/STM32L0xx_HAL_Driver/Src/stm32l0xx_hal_i2c.c **** /*!< Slave Busy RX, combinaison of State LSB and Mode enum  */
 377:Drivers/STM32L0xx_HAL_Driver/Src/stm32l0xx_hal_i2c.c **** #define I2C_STATE_MEM_BUSY_TX     ((uint32_t)(((uint32_t)HAL_I2C_STATE_BUSY_TX & I2C_STATE_MSK) | \
 378:Drivers/STM32L0xx_HAL_Driver/Src/stm32l0xx_hal_i2c.c ****                                               (uint32_t)HAL_I2C_MODE_MEM))
 379:Drivers/STM32L0xx_HAL_Driver/Src/stm32l0xx_hal_i2c.c **** /*!< Memory Busy TX, combinaison of State LSB and Mode enum */
 380:Drivers/STM32L0xx_HAL_Driver/Src/stm32l0xx_hal_i2c.c **** #define I2C_STATE_MEM_BUSY_RX     ((uint32_t)(((uint32_t)HAL_I2C_STATE_BUSY_RX & I2C_STATE_MSK) | \
 381:Drivers/STM32L0xx_HAL_Driver/Src/stm32l0xx_hal_i2c.c ****                                               (uint32_t)HAL_I2C_MODE_MEM))
 382:Drivers/STM32L0xx_HAL_Driver/Src/stm32l0xx_hal_i2c.c **** /*!< Memory Busy RX, combinaison of State LSB and Mode enum */
 383:Drivers/STM32L0xx_HAL_Driver/Src/stm32l0xx_hal_i2c.c **** 
 384:Drivers/STM32L0xx_HAL_Driver/Src/stm32l0xx_hal_i2c.c **** 
 385:Drivers/STM32L0xx_HAL_Driver/Src/stm32l0xx_hal_i2c.c **** /* Private define to centralize the enable/disable of Interrupts */
 386:Drivers/STM32L0xx_HAL_Driver/Src/stm32l0xx_hal_i2c.c **** #define I2C_XFER_TX_IT          (uint16_t)(0x0001U)   /*!< Bit field can be combinated with
 387:Drivers/STM32L0xx_HAL_Driver/Src/stm32l0xx_hal_i2c.c ****                                                          @ref I2C_XFER_LISTEN_IT */
 388:Drivers/STM32L0xx_HAL_Driver/Src/stm32l0xx_hal_i2c.c **** #define I2C_XFER_RX_IT          (uint16_t)(0x0002U)   /*!< Bit field can be combinated with
 389:Drivers/STM32L0xx_HAL_Driver/Src/stm32l0xx_hal_i2c.c ****                                                          @ref I2C_XFER_LISTEN_IT */
 390:Drivers/STM32L0xx_HAL_Driver/Src/stm32l0xx_hal_i2c.c **** #define I2C_XFER_LISTEN_IT      (uint16_t)(0x8000U)   /*!< Bit field can be combinated with @ref I2
 391:Drivers/STM32L0xx_HAL_Driver/Src/stm32l0xx_hal_i2c.c ****                                                          and @ref I2C_XFER_RX_IT */
 392:Drivers/STM32L0xx_HAL_Driver/Src/stm32l0xx_hal_i2c.c **** 
 393:Drivers/STM32L0xx_HAL_Driver/Src/stm32l0xx_hal_i2c.c **** #define I2C_XFER_ERROR_IT       (uint16_t)(0x0010U)   /*!< Bit definition to manage addition of glo
 394:Drivers/STM32L0xx_HAL_Driver/Src/stm32l0xx_hal_i2c.c ****                                                          and NACK treatment */
 395:Drivers/STM32L0xx_HAL_Driver/Src/stm32l0xx_hal_i2c.c **** #define I2C_XFER_CPLT_IT        (uint16_t)(0x0020U)   /*!< Bit definition to manage only STOP evene
 396:Drivers/STM32L0xx_HAL_Driver/Src/stm32l0xx_hal_i2c.c **** #define I2C_XFER_RELOAD_IT      (uint16_t)(0x0040U)   /*!< Bit definition to manage only Reload of 
 397:Drivers/STM32L0xx_HAL_Driver/Src/stm32l0xx_hal_i2c.c **** 
 398:Drivers/STM32L0xx_HAL_Driver/Src/stm32l0xx_hal_i2c.c **** /* Private define Sequential Transfer Options default/reset value */
 399:Drivers/STM32L0xx_HAL_Driver/Src/stm32l0xx_hal_i2c.c **** #define I2C_NO_OPTION_FRAME     (0xFFFF0000U)
 400:Drivers/STM32L0xx_HAL_Driver/Src/stm32l0xx_hal_i2c.c **** /**
 401:Drivers/STM32L0xx_HAL_Driver/Src/stm32l0xx_hal_i2c.c ****   * @}
 402:Drivers/STM32L0xx_HAL_Driver/Src/stm32l0xx_hal_i2c.c ****   */
 403:Drivers/STM32L0xx_HAL_Driver/Src/stm32l0xx_hal_i2c.c **** 
 404:Drivers/STM32L0xx_HAL_Driver/Src/stm32l0xx_hal_i2c.c **** /* Private macro -------------------------------------------------------------*/
 405:Drivers/STM32L0xx_HAL_Driver/Src/stm32l0xx_hal_i2c.c **** /* Private variables ---------------------------------------------------------*/
 406:Drivers/STM32L0xx_HAL_Driver/Src/stm32l0xx_hal_i2c.c **** /* Private function prototypes -----------------------------------------------*/
 407:Drivers/STM32L0xx_HAL_Driver/Src/stm32l0xx_hal_i2c.c **** 
 408:Drivers/STM32L0xx_HAL_Driver/Src/stm32l0xx_hal_i2c.c **** /** @defgroup I2C_Private_Functions I2C Private Functions
 409:Drivers/STM32L0xx_HAL_Driver/Src/stm32l0xx_hal_i2c.c ****   * @{
 410:Drivers/STM32L0xx_HAL_Driver/Src/stm32l0xx_hal_i2c.c ****   */
 411:Drivers/STM32L0xx_HAL_Driver/Src/stm32l0xx_hal_i2c.c **** /* Private functions to handle DMA transfer */
 412:Drivers/STM32L0xx_HAL_Driver/Src/stm32l0xx_hal_i2c.c **** static void I2C_DMAMasterTransmitCplt(DMA_HandleTypeDef *hdma);
 413:Drivers/STM32L0xx_HAL_Driver/Src/stm32l0xx_hal_i2c.c **** static void I2C_DMAMasterReceiveCplt(DMA_HandleTypeDef *hdma);
 414:Drivers/STM32L0xx_HAL_Driver/Src/stm32l0xx_hal_i2c.c **** static void I2C_DMASlaveTransmitCplt(DMA_HandleTypeDef *hdma);
 415:Drivers/STM32L0xx_HAL_Driver/Src/stm32l0xx_hal_i2c.c **** static void I2C_DMASlaveReceiveCplt(DMA_HandleTypeDef *hdma);
 416:Drivers/STM32L0xx_HAL_Driver/Src/stm32l0xx_hal_i2c.c **** static void I2C_DMAError(DMA_HandleTypeDef *hdma);
 417:Drivers/STM32L0xx_HAL_Driver/Src/stm32l0xx_hal_i2c.c **** static void I2C_DMAAbort(DMA_HandleTypeDef *hdma);
 418:Drivers/STM32L0xx_HAL_Driver/Src/stm32l0xx_hal_i2c.c **** 
 419:Drivers/STM32L0xx_HAL_Driver/Src/stm32l0xx_hal_i2c.c **** /* Private functions to handle IT transfer */
 420:Drivers/STM32L0xx_HAL_Driver/Src/stm32l0xx_hal_i2c.c **** static void I2C_ITAddrCplt(I2C_HandleTypeDef *hi2c, uint32_t ITFlags);
 421:Drivers/STM32L0xx_HAL_Driver/Src/stm32l0xx_hal_i2c.c **** static void I2C_ITMasterSeqCplt(I2C_HandleTypeDef *hi2c);
 422:Drivers/STM32L0xx_HAL_Driver/Src/stm32l0xx_hal_i2c.c **** static void I2C_ITSlaveSeqCplt(I2C_HandleTypeDef *hi2c);
 423:Drivers/STM32L0xx_HAL_Driver/Src/stm32l0xx_hal_i2c.c **** static void I2C_ITMasterCplt(I2C_HandleTypeDef *hi2c, uint32_t ITFlags);
 424:Drivers/STM32L0xx_HAL_Driver/Src/stm32l0xx_hal_i2c.c **** static void I2C_ITSlaveCplt(I2C_HandleTypeDef *hi2c, uint32_t ITFlags);
 425:Drivers/STM32L0xx_HAL_Driver/Src/stm32l0xx_hal_i2c.c **** static void I2C_ITListenCplt(I2C_HandleTypeDef *hi2c, uint32_t ITFlags);
 426:Drivers/STM32L0xx_HAL_Driver/Src/stm32l0xx_hal_i2c.c **** static void I2C_ITError(I2C_HandleTypeDef *hi2c, uint32_t ErrorCode);
 427:Drivers/STM32L0xx_HAL_Driver/Src/stm32l0xx_hal_i2c.c **** 
 428:Drivers/STM32L0xx_HAL_Driver/Src/stm32l0xx_hal_i2c.c **** /* Private functions to handle IT transfer */
 429:Drivers/STM32L0xx_HAL_Driver/Src/stm32l0xx_hal_i2c.c **** static HAL_StatusTypeDef I2C_RequestMemoryWrite(I2C_HandleTypeDef *hi2c, uint16_t DevAddress,
 430:Drivers/STM32L0xx_HAL_Driver/Src/stm32l0xx_hal_i2c.c ****                                                 uint16_t MemAddress, uint16_t MemAddSize, uint32_t 
 431:Drivers/STM32L0xx_HAL_Driver/Src/stm32l0xx_hal_i2c.c ****                                                 uint32_t Tickstart);
ARM GAS  /var/folders/fs/dxwfnrqj18z860lwl3d6f5t00000gn/T//cc1liz9x.s 			page 9


 432:Drivers/STM32L0xx_HAL_Driver/Src/stm32l0xx_hal_i2c.c **** static HAL_StatusTypeDef I2C_RequestMemoryRead(I2C_HandleTypeDef *hi2c, uint16_t DevAddress,
 433:Drivers/STM32L0xx_HAL_Driver/Src/stm32l0xx_hal_i2c.c ****                                                uint16_t MemAddress, uint16_t MemAddSize, uint32_t T
 434:Drivers/STM32L0xx_HAL_Driver/Src/stm32l0xx_hal_i2c.c ****                                                uint32_t Tickstart);
 435:Drivers/STM32L0xx_HAL_Driver/Src/stm32l0xx_hal_i2c.c **** 
 436:Drivers/STM32L0xx_HAL_Driver/Src/stm32l0xx_hal_i2c.c **** /* Private functions for I2C transfer IRQ handler */
 437:Drivers/STM32L0xx_HAL_Driver/Src/stm32l0xx_hal_i2c.c **** static HAL_StatusTypeDef I2C_Master_ISR_IT(struct __I2C_HandleTypeDef *hi2c, uint32_t ITFlags,
 438:Drivers/STM32L0xx_HAL_Driver/Src/stm32l0xx_hal_i2c.c ****                                            uint32_t ITSources);
 439:Drivers/STM32L0xx_HAL_Driver/Src/stm32l0xx_hal_i2c.c **** static HAL_StatusTypeDef I2C_Slave_ISR_IT(struct __I2C_HandleTypeDef *hi2c, uint32_t ITFlags,
 440:Drivers/STM32L0xx_HAL_Driver/Src/stm32l0xx_hal_i2c.c ****                                           uint32_t ITSources);
 441:Drivers/STM32L0xx_HAL_Driver/Src/stm32l0xx_hal_i2c.c **** static HAL_StatusTypeDef I2C_Master_ISR_DMA(struct __I2C_HandleTypeDef *hi2c, uint32_t ITFlags,
 442:Drivers/STM32L0xx_HAL_Driver/Src/stm32l0xx_hal_i2c.c ****                                             uint32_t ITSources);
 443:Drivers/STM32L0xx_HAL_Driver/Src/stm32l0xx_hal_i2c.c **** static HAL_StatusTypeDef I2C_Slave_ISR_DMA(struct __I2C_HandleTypeDef *hi2c, uint32_t ITFlags,
 444:Drivers/STM32L0xx_HAL_Driver/Src/stm32l0xx_hal_i2c.c ****                                            uint32_t ITSources);
 445:Drivers/STM32L0xx_HAL_Driver/Src/stm32l0xx_hal_i2c.c **** 
 446:Drivers/STM32L0xx_HAL_Driver/Src/stm32l0xx_hal_i2c.c **** /* Private functions to handle flags during polling transfer */
 447:Drivers/STM32L0xx_HAL_Driver/Src/stm32l0xx_hal_i2c.c **** static HAL_StatusTypeDef I2C_WaitOnFlagUntilTimeout(I2C_HandleTypeDef *hi2c, uint32_t Flag, FlagSta
 448:Drivers/STM32L0xx_HAL_Driver/Src/stm32l0xx_hal_i2c.c ****                                                     uint32_t Timeout, uint32_t Tickstart);
 449:Drivers/STM32L0xx_HAL_Driver/Src/stm32l0xx_hal_i2c.c **** static HAL_StatusTypeDef I2C_WaitOnTXISFlagUntilTimeout(I2C_HandleTypeDef *hi2c, uint32_t Timeout,
 450:Drivers/STM32L0xx_HAL_Driver/Src/stm32l0xx_hal_i2c.c ****                                                         uint32_t Tickstart);
 451:Drivers/STM32L0xx_HAL_Driver/Src/stm32l0xx_hal_i2c.c **** static HAL_StatusTypeDef I2C_WaitOnRXNEFlagUntilTimeout(I2C_HandleTypeDef *hi2c, uint32_t Timeout,
 452:Drivers/STM32L0xx_HAL_Driver/Src/stm32l0xx_hal_i2c.c ****                                                         uint32_t Tickstart);
 453:Drivers/STM32L0xx_HAL_Driver/Src/stm32l0xx_hal_i2c.c **** static HAL_StatusTypeDef I2C_WaitOnSTOPFlagUntilTimeout(I2C_HandleTypeDef *hi2c, uint32_t Timeout,
 454:Drivers/STM32L0xx_HAL_Driver/Src/stm32l0xx_hal_i2c.c ****                                                         uint32_t Tickstart);
 455:Drivers/STM32L0xx_HAL_Driver/Src/stm32l0xx_hal_i2c.c **** static HAL_StatusTypeDef I2C_IsAcknowledgeFailed(I2C_HandleTypeDef *hi2c, uint32_t Timeout,
 456:Drivers/STM32L0xx_HAL_Driver/Src/stm32l0xx_hal_i2c.c ****                                                  uint32_t Tickstart);
 457:Drivers/STM32L0xx_HAL_Driver/Src/stm32l0xx_hal_i2c.c **** 
 458:Drivers/STM32L0xx_HAL_Driver/Src/stm32l0xx_hal_i2c.c **** /* Private functions to centralize the enable/disable of Interrupts */
 459:Drivers/STM32L0xx_HAL_Driver/Src/stm32l0xx_hal_i2c.c **** static void I2C_Enable_IRQ(I2C_HandleTypeDef *hi2c, uint16_t InterruptRequest);
 460:Drivers/STM32L0xx_HAL_Driver/Src/stm32l0xx_hal_i2c.c **** static void I2C_Disable_IRQ(I2C_HandleTypeDef *hi2c, uint16_t InterruptRequest);
 461:Drivers/STM32L0xx_HAL_Driver/Src/stm32l0xx_hal_i2c.c **** 
 462:Drivers/STM32L0xx_HAL_Driver/Src/stm32l0xx_hal_i2c.c **** /* Private function to treat different error callback */
 463:Drivers/STM32L0xx_HAL_Driver/Src/stm32l0xx_hal_i2c.c **** static void I2C_TreatErrorCallback(I2C_HandleTypeDef *hi2c);
 464:Drivers/STM32L0xx_HAL_Driver/Src/stm32l0xx_hal_i2c.c **** 
 465:Drivers/STM32L0xx_HAL_Driver/Src/stm32l0xx_hal_i2c.c **** /* Private function to flush TXDR register */
 466:Drivers/STM32L0xx_HAL_Driver/Src/stm32l0xx_hal_i2c.c **** static void I2C_Flush_TXDR(I2C_HandleTypeDef *hi2c);
 467:Drivers/STM32L0xx_HAL_Driver/Src/stm32l0xx_hal_i2c.c **** 
 468:Drivers/STM32L0xx_HAL_Driver/Src/stm32l0xx_hal_i2c.c **** /* Private function to handle  start, restart or stop a transfer */
 469:Drivers/STM32L0xx_HAL_Driver/Src/stm32l0xx_hal_i2c.c **** static void I2C_TransferConfig(I2C_HandleTypeDef *hi2c, uint16_t DevAddress, uint8_t Size, uint32_t
 470:Drivers/STM32L0xx_HAL_Driver/Src/stm32l0xx_hal_i2c.c ****                                uint32_t Request);
 471:Drivers/STM32L0xx_HAL_Driver/Src/stm32l0xx_hal_i2c.c **** 
 472:Drivers/STM32L0xx_HAL_Driver/Src/stm32l0xx_hal_i2c.c **** /* Private function to Convert Specific options */
 473:Drivers/STM32L0xx_HAL_Driver/Src/stm32l0xx_hal_i2c.c **** static void I2C_ConvertOtherXferOptions(I2C_HandleTypeDef *hi2c);
 474:Drivers/STM32L0xx_HAL_Driver/Src/stm32l0xx_hal_i2c.c **** /**
 475:Drivers/STM32L0xx_HAL_Driver/Src/stm32l0xx_hal_i2c.c ****   * @}
 476:Drivers/STM32L0xx_HAL_Driver/Src/stm32l0xx_hal_i2c.c ****   */
 477:Drivers/STM32L0xx_HAL_Driver/Src/stm32l0xx_hal_i2c.c **** 
 478:Drivers/STM32L0xx_HAL_Driver/Src/stm32l0xx_hal_i2c.c **** /* Exported functions --------------------------------------------------------*/
 479:Drivers/STM32L0xx_HAL_Driver/Src/stm32l0xx_hal_i2c.c **** 
 480:Drivers/STM32L0xx_HAL_Driver/Src/stm32l0xx_hal_i2c.c **** /** @defgroup I2C_Exported_Functions I2C Exported Functions
 481:Drivers/STM32L0xx_HAL_Driver/Src/stm32l0xx_hal_i2c.c ****   * @{
 482:Drivers/STM32L0xx_HAL_Driver/Src/stm32l0xx_hal_i2c.c ****   */
 483:Drivers/STM32L0xx_HAL_Driver/Src/stm32l0xx_hal_i2c.c **** 
 484:Drivers/STM32L0xx_HAL_Driver/Src/stm32l0xx_hal_i2c.c **** /** @defgroup I2C_Exported_Functions_Group1 Initialization and de-initialization functions
 485:Drivers/STM32L0xx_HAL_Driver/Src/stm32l0xx_hal_i2c.c ****   *  @brief    Initialization and Configuration functions
 486:Drivers/STM32L0xx_HAL_Driver/Src/stm32l0xx_hal_i2c.c ****   *
 487:Drivers/STM32L0xx_HAL_Driver/Src/stm32l0xx_hal_i2c.c **** @verbatim
 488:Drivers/STM32L0xx_HAL_Driver/Src/stm32l0xx_hal_i2c.c ****  ===============================================================================
ARM GAS  /var/folders/fs/dxwfnrqj18z860lwl3d6f5t00000gn/T//cc1liz9x.s 			page 10


 489:Drivers/STM32L0xx_HAL_Driver/Src/stm32l0xx_hal_i2c.c ****               ##### Initialization and de-initialization functions #####
 490:Drivers/STM32L0xx_HAL_Driver/Src/stm32l0xx_hal_i2c.c ****  ===============================================================================
 491:Drivers/STM32L0xx_HAL_Driver/Src/stm32l0xx_hal_i2c.c ****     [..]  This subsection provides a set of functions allowing to initialize and
 492:Drivers/STM32L0xx_HAL_Driver/Src/stm32l0xx_hal_i2c.c ****           deinitialize the I2Cx peripheral:
 493:Drivers/STM32L0xx_HAL_Driver/Src/stm32l0xx_hal_i2c.c **** 
 494:Drivers/STM32L0xx_HAL_Driver/Src/stm32l0xx_hal_i2c.c ****       (+) User must Implement HAL_I2C_MspInit() function in which he configures
 495:Drivers/STM32L0xx_HAL_Driver/Src/stm32l0xx_hal_i2c.c ****           all related peripherals resources (CLOCK, GPIO, DMA, IT and NVIC ).
 496:Drivers/STM32L0xx_HAL_Driver/Src/stm32l0xx_hal_i2c.c **** 
 497:Drivers/STM32L0xx_HAL_Driver/Src/stm32l0xx_hal_i2c.c ****       (+) Call the function HAL_I2C_Init() to configure the selected device with
 498:Drivers/STM32L0xx_HAL_Driver/Src/stm32l0xx_hal_i2c.c ****           the selected configuration:
 499:Drivers/STM32L0xx_HAL_Driver/Src/stm32l0xx_hal_i2c.c ****         (++) Clock Timing
 500:Drivers/STM32L0xx_HAL_Driver/Src/stm32l0xx_hal_i2c.c ****         (++) Own Address 1
 501:Drivers/STM32L0xx_HAL_Driver/Src/stm32l0xx_hal_i2c.c ****         (++) Addressing mode (Master, Slave)
 502:Drivers/STM32L0xx_HAL_Driver/Src/stm32l0xx_hal_i2c.c ****         (++) Dual Addressing mode
 503:Drivers/STM32L0xx_HAL_Driver/Src/stm32l0xx_hal_i2c.c ****         (++) Own Address 2
 504:Drivers/STM32L0xx_HAL_Driver/Src/stm32l0xx_hal_i2c.c ****         (++) Own Address 2 Mask
 505:Drivers/STM32L0xx_HAL_Driver/Src/stm32l0xx_hal_i2c.c ****         (++) General call mode
 506:Drivers/STM32L0xx_HAL_Driver/Src/stm32l0xx_hal_i2c.c ****         (++) Nostretch mode
 507:Drivers/STM32L0xx_HAL_Driver/Src/stm32l0xx_hal_i2c.c **** 
 508:Drivers/STM32L0xx_HAL_Driver/Src/stm32l0xx_hal_i2c.c ****       (+) Call the function HAL_I2C_DeInit() to restore the default configuration
 509:Drivers/STM32L0xx_HAL_Driver/Src/stm32l0xx_hal_i2c.c ****           of the selected I2Cx peripheral.
 510:Drivers/STM32L0xx_HAL_Driver/Src/stm32l0xx_hal_i2c.c **** 
 511:Drivers/STM32L0xx_HAL_Driver/Src/stm32l0xx_hal_i2c.c **** @endverbatim
 512:Drivers/STM32L0xx_HAL_Driver/Src/stm32l0xx_hal_i2c.c ****   * @{
 513:Drivers/STM32L0xx_HAL_Driver/Src/stm32l0xx_hal_i2c.c ****   */
 514:Drivers/STM32L0xx_HAL_Driver/Src/stm32l0xx_hal_i2c.c **** 
 515:Drivers/STM32L0xx_HAL_Driver/Src/stm32l0xx_hal_i2c.c **** /**
 516:Drivers/STM32L0xx_HAL_Driver/Src/stm32l0xx_hal_i2c.c ****   * @brief  Initializes the I2C according to the specified parameters
 517:Drivers/STM32L0xx_HAL_Driver/Src/stm32l0xx_hal_i2c.c ****   *         in the I2C_InitTypeDef and initialize the associated handle.
 518:Drivers/STM32L0xx_HAL_Driver/Src/stm32l0xx_hal_i2c.c ****   * @param  hi2c Pointer to a I2C_HandleTypeDef structure that contains
 519:Drivers/STM32L0xx_HAL_Driver/Src/stm32l0xx_hal_i2c.c ****   *                the configuration information for the specified I2C.
 520:Drivers/STM32L0xx_HAL_Driver/Src/stm32l0xx_hal_i2c.c ****   * @retval HAL status
 521:Drivers/STM32L0xx_HAL_Driver/Src/stm32l0xx_hal_i2c.c ****   */
 522:Drivers/STM32L0xx_HAL_Driver/Src/stm32l0xx_hal_i2c.c **** HAL_StatusTypeDef HAL_I2C_Init(I2C_HandleTypeDef *hi2c)
 523:Drivers/STM32L0xx_HAL_Driver/Src/stm32l0xx_hal_i2c.c **** {
  27              		.loc 1 523 1
  28              		.cfi_startproc
  29              		@ args = 0, pretend = 0, frame = 8
  30              		@ frame_needed = 1, uses_anonymous_args = 0
  31 0000 80B5     		push	{r7, lr}
  32              	.LCFI0:
  33              		.cfi_def_cfa_offset 8
  34              		.cfi_offset 7, -8
  35              		.cfi_offset 14, -4
  36 0002 82B0     		sub	sp, sp, #8
  37              	.LCFI1:
  38              		.cfi_def_cfa_offset 16
  39 0004 00AF     		add	r7, sp, #0
  40              	.LCFI2:
  41              		.cfi_def_cfa_register 7
  42 0006 7860     		str	r0, [r7, #4]
 524:Drivers/STM32L0xx_HAL_Driver/Src/stm32l0xx_hal_i2c.c ****   /* Check the I2C handle allocation */
 525:Drivers/STM32L0xx_HAL_Driver/Src/stm32l0xx_hal_i2c.c ****   if (hi2c == NULL)
  43              		.loc 1 525 6
  44 0008 7B68     		ldr	r3, [r7, #4]
  45 000a 002B     		cmp	r3, #0
  46 000c 01D1     		bne	.L2
ARM GAS  /var/folders/fs/dxwfnrqj18z860lwl3d6f5t00000gn/T//cc1liz9x.s 			page 11


 526:Drivers/STM32L0xx_HAL_Driver/Src/stm32l0xx_hal_i2c.c ****   {
 527:Drivers/STM32L0xx_HAL_Driver/Src/stm32l0xx_hal_i2c.c ****     return HAL_ERROR;
  47              		.loc 1 527 12
  48 000e 0123     		movs	r3, #1
  49 0010 82E0     		b	.L3
  50              	.L2:
 528:Drivers/STM32L0xx_HAL_Driver/Src/stm32l0xx_hal_i2c.c ****   }
 529:Drivers/STM32L0xx_HAL_Driver/Src/stm32l0xx_hal_i2c.c **** 
 530:Drivers/STM32L0xx_HAL_Driver/Src/stm32l0xx_hal_i2c.c ****   /* Check the parameters */
 531:Drivers/STM32L0xx_HAL_Driver/Src/stm32l0xx_hal_i2c.c ****   assert_param(IS_I2C_ALL_INSTANCE(hi2c->Instance));
 532:Drivers/STM32L0xx_HAL_Driver/Src/stm32l0xx_hal_i2c.c ****   assert_param(IS_I2C_OWN_ADDRESS1(hi2c->Init.OwnAddress1));
 533:Drivers/STM32L0xx_HAL_Driver/Src/stm32l0xx_hal_i2c.c ****   assert_param(IS_I2C_ADDRESSING_MODE(hi2c->Init.AddressingMode));
 534:Drivers/STM32L0xx_HAL_Driver/Src/stm32l0xx_hal_i2c.c ****   assert_param(IS_I2C_DUAL_ADDRESS(hi2c->Init.DualAddressMode));
 535:Drivers/STM32L0xx_HAL_Driver/Src/stm32l0xx_hal_i2c.c ****   assert_param(IS_I2C_OWN_ADDRESS2(hi2c->Init.OwnAddress2));
 536:Drivers/STM32L0xx_HAL_Driver/Src/stm32l0xx_hal_i2c.c ****   assert_param(IS_I2C_OWN_ADDRESS2_MASK(hi2c->Init.OwnAddress2Masks));
 537:Drivers/STM32L0xx_HAL_Driver/Src/stm32l0xx_hal_i2c.c ****   assert_param(IS_I2C_GENERAL_CALL(hi2c->Init.GeneralCallMode));
 538:Drivers/STM32L0xx_HAL_Driver/Src/stm32l0xx_hal_i2c.c ****   assert_param(IS_I2C_NO_STRETCH(hi2c->Init.NoStretchMode));
 539:Drivers/STM32L0xx_HAL_Driver/Src/stm32l0xx_hal_i2c.c **** 
 540:Drivers/STM32L0xx_HAL_Driver/Src/stm32l0xx_hal_i2c.c ****   if (hi2c->State == HAL_I2C_STATE_RESET)
  51              		.loc 1 540 11
  52 0012 7B68     		ldr	r3, [r7, #4]
  53 0014 4122     		movs	r2, #65
  54 0016 9B5C     		ldrb	r3, [r3, r2]
  55 0018 DBB2     		uxtb	r3, r3
  56              		.loc 1 540 6
  57 001a 002B     		cmp	r3, #0
  58 001c 07D1     		bne	.L4
 541:Drivers/STM32L0xx_HAL_Driver/Src/stm32l0xx_hal_i2c.c ****   {
 542:Drivers/STM32L0xx_HAL_Driver/Src/stm32l0xx_hal_i2c.c ****     /* Allocate lock resource and initialize it */
 543:Drivers/STM32L0xx_HAL_Driver/Src/stm32l0xx_hal_i2c.c ****     hi2c->Lock = HAL_UNLOCKED;
  59              		.loc 1 543 16
  60 001e 7B68     		ldr	r3, [r7, #4]
  61 0020 4022     		movs	r2, #64
  62 0022 0021     		movs	r1, #0
  63 0024 9954     		strb	r1, [r3, r2]
 544:Drivers/STM32L0xx_HAL_Driver/Src/stm32l0xx_hal_i2c.c **** 
 545:Drivers/STM32L0xx_HAL_Driver/Src/stm32l0xx_hal_i2c.c **** #if (USE_HAL_I2C_REGISTER_CALLBACKS == 1)
 546:Drivers/STM32L0xx_HAL_Driver/Src/stm32l0xx_hal_i2c.c ****     /* Init the I2C Callback settings */
 547:Drivers/STM32L0xx_HAL_Driver/Src/stm32l0xx_hal_i2c.c ****     hi2c->MasterTxCpltCallback = HAL_I2C_MasterTxCpltCallback; /* Legacy weak MasterTxCpltCallback 
 548:Drivers/STM32L0xx_HAL_Driver/Src/stm32l0xx_hal_i2c.c ****     hi2c->MasterRxCpltCallback = HAL_I2C_MasterRxCpltCallback; /* Legacy weak MasterRxCpltCallback 
 549:Drivers/STM32L0xx_HAL_Driver/Src/stm32l0xx_hal_i2c.c ****     hi2c->SlaveTxCpltCallback  = HAL_I2C_SlaveTxCpltCallback;  /* Legacy weak SlaveTxCpltCallback  
 550:Drivers/STM32L0xx_HAL_Driver/Src/stm32l0xx_hal_i2c.c ****     hi2c->SlaveRxCpltCallback  = HAL_I2C_SlaveRxCpltCallback;  /* Legacy weak SlaveRxCpltCallback  
 551:Drivers/STM32L0xx_HAL_Driver/Src/stm32l0xx_hal_i2c.c ****     hi2c->ListenCpltCallback   = HAL_I2C_ListenCpltCallback;   /* Legacy weak ListenCpltCallback   
 552:Drivers/STM32L0xx_HAL_Driver/Src/stm32l0xx_hal_i2c.c ****     hi2c->MemTxCpltCallback    = HAL_I2C_MemTxCpltCallback;    /* Legacy weak MemTxCpltCallback    
 553:Drivers/STM32L0xx_HAL_Driver/Src/stm32l0xx_hal_i2c.c ****     hi2c->MemRxCpltCallback    = HAL_I2C_MemRxCpltCallback;    /* Legacy weak MemRxCpltCallback    
 554:Drivers/STM32L0xx_HAL_Driver/Src/stm32l0xx_hal_i2c.c ****     hi2c->ErrorCallback        = HAL_I2C_ErrorCallback;        /* Legacy weak ErrorCallback        
 555:Drivers/STM32L0xx_HAL_Driver/Src/stm32l0xx_hal_i2c.c ****     hi2c->AbortCpltCallback    = HAL_I2C_AbortCpltCallback;    /* Legacy weak AbortCpltCallback    
 556:Drivers/STM32L0xx_HAL_Driver/Src/stm32l0xx_hal_i2c.c ****     hi2c->AddrCallback         = HAL_I2C_AddrCallback;         /* Legacy weak AddrCallback         
 557:Drivers/STM32L0xx_HAL_Driver/Src/stm32l0xx_hal_i2c.c **** 
 558:Drivers/STM32L0xx_HAL_Driver/Src/stm32l0xx_hal_i2c.c ****     if (hi2c->MspInitCallback == NULL)
 559:Drivers/STM32L0xx_HAL_Driver/Src/stm32l0xx_hal_i2c.c ****     {
 560:Drivers/STM32L0xx_HAL_Driver/Src/stm32l0xx_hal_i2c.c ****       hi2c->MspInitCallback = HAL_I2C_MspInit; /* Legacy weak MspInit  */
 561:Drivers/STM32L0xx_HAL_Driver/Src/stm32l0xx_hal_i2c.c ****     }
 562:Drivers/STM32L0xx_HAL_Driver/Src/stm32l0xx_hal_i2c.c **** 
 563:Drivers/STM32L0xx_HAL_Driver/Src/stm32l0xx_hal_i2c.c ****     /* Init the low level hardware : GPIO, CLOCK, CORTEX...etc */
 564:Drivers/STM32L0xx_HAL_Driver/Src/stm32l0xx_hal_i2c.c ****     hi2c->MspInitCallback(hi2c);
 565:Drivers/STM32L0xx_HAL_Driver/Src/stm32l0xx_hal_i2c.c **** #else
ARM GAS  /var/folders/fs/dxwfnrqj18z860lwl3d6f5t00000gn/T//cc1liz9x.s 			page 12


 566:Drivers/STM32L0xx_HAL_Driver/Src/stm32l0xx_hal_i2c.c ****     /* Init the low level hardware : GPIO, CLOCK, CORTEX...etc */
 567:Drivers/STM32L0xx_HAL_Driver/Src/stm32l0xx_hal_i2c.c ****     HAL_I2C_MspInit(hi2c);
  64              		.loc 1 567 5
  65 0026 7B68     		ldr	r3, [r7, #4]
  66 0028 1800     		movs	r0, r3
  67 002a FFF7FEFF 		bl	HAL_I2C_MspInit
  68              	.L4:
 568:Drivers/STM32L0xx_HAL_Driver/Src/stm32l0xx_hal_i2c.c **** #endif /* USE_HAL_I2C_REGISTER_CALLBACKS */
 569:Drivers/STM32L0xx_HAL_Driver/Src/stm32l0xx_hal_i2c.c ****   }
 570:Drivers/STM32L0xx_HAL_Driver/Src/stm32l0xx_hal_i2c.c **** 
 571:Drivers/STM32L0xx_HAL_Driver/Src/stm32l0xx_hal_i2c.c ****   hi2c->State = HAL_I2C_STATE_BUSY;
  69              		.loc 1 571 15
  70 002e 7B68     		ldr	r3, [r7, #4]
  71 0030 4122     		movs	r2, #65
  72 0032 2421     		movs	r1, #36
  73 0034 9954     		strb	r1, [r3, r2]
 572:Drivers/STM32L0xx_HAL_Driver/Src/stm32l0xx_hal_i2c.c **** 
 573:Drivers/STM32L0xx_HAL_Driver/Src/stm32l0xx_hal_i2c.c ****   /* Disable the selected I2C peripheral */
 574:Drivers/STM32L0xx_HAL_Driver/Src/stm32l0xx_hal_i2c.c ****   __HAL_I2C_DISABLE(hi2c);
  74              		.loc 1 574 3
  75 0036 7B68     		ldr	r3, [r7, #4]
  76 0038 1B68     		ldr	r3, [r3]
  77 003a 1A68     		ldr	r2, [r3]
  78 003c 7B68     		ldr	r3, [r7, #4]
  79 003e 1B68     		ldr	r3, [r3]
  80 0040 0121     		movs	r1, #1
  81 0042 8A43     		bics	r2, r1
  82 0044 1A60     		str	r2, [r3]
 575:Drivers/STM32L0xx_HAL_Driver/Src/stm32l0xx_hal_i2c.c **** 
 576:Drivers/STM32L0xx_HAL_Driver/Src/stm32l0xx_hal_i2c.c ****   /*---------------------------- I2Cx TIMINGR Configuration ------------------*/
 577:Drivers/STM32L0xx_HAL_Driver/Src/stm32l0xx_hal_i2c.c ****   /* Configure I2Cx: Frequency range */
 578:Drivers/STM32L0xx_HAL_Driver/Src/stm32l0xx_hal_i2c.c ****   hi2c->Instance->TIMINGR = hi2c->Init.Timing & TIMING_CLEAR_MASK;
  83              		.loc 1 578 39
  84 0046 7B68     		ldr	r3, [r7, #4]
  85 0048 5A68     		ldr	r2, [r3, #4]
  86              		.loc 1 578 7
  87 004a 7B68     		ldr	r3, [r7, #4]
  88 004c 1B68     		ldr	r3, [r3]
  89              		.loc 1 578 47
  90 004e 3449     		ldr	r1, .L8
  91 0050 0A40     		ands	r2, r1
  92              		.loc 1 578 27
  93 0052 1A61     		str	r2, [r3, #16]
 579:Drivers/STM32L0xx_HAL_Driver/Src/stm32l0xx_hal_i2c.c **** 
 580:Drivers/STM32L0xx_HAL_Driver/Src/stm32l0xx_hal_i2c.c ****   /*---------------------------- I2Cx OAR1 Configuration ---------------------*/
 581:Drivers/STM32L0xx_HAL_Driver/Src/stm32l0xx_hal_i2c.c ****   /* Disable Own Address1 before set the Own Address1 configuration */
 582:Drivers/STM32L0xx_HAL_Driver/Src/stm32l0xx_hal_i2c.c ****   hi2c->Instance->OAR1 &= ~I2C_OAR1_OA1EN;
  94              		.loc 1 582 7
  95 0054 7B68     		ldr	r3, [r7, #4]
  96 0056 1B68     		ldr	r3, [r3]
  97              		.loc 1 582 24
  98 0058 9A68     		ldr	r2, [r3, #8]
  99              		.loc 1 582 7
 100 005a 7B68     		ldr	r3, [r7, #4]
 101 005c 1B68     		ldr	r3, [r3]
 102              		.loc 1 582 24
 103 005e 3149     		ldr	r1, .L8+4
ARM GAS  /var/folders/fs/dxwfnrqj18z860lwl3d6f5t00000gn/T//cc1liz9x.s 			page 13


 104 0060 0A40     		ands	r2, r1
 105 0062 9A60     		str	r2, [r3, #8]
 583:Drivers/STM32L0xx_HAL_Driver/Src/stm32l0xx_hal_i2c.c **** 
 584:Drivers/STM32L0xx_HAL_Driver/Src/stm32l0xx_hal_i2c.c ****   /* Configure I2Cx: Own Address1 and ack own address1 mode */
 585:Drivers/STM32L0xx_HAL_Driver/Src/stm32l0xx_hal_i2c.c ****   if (hi2c->Init.AddressingMode == I2C_ADDRESSINGMODE_7BIT)
 106              		.loc 1 585 17
 107 0064 7B68     		ldr	r3, [r7, #4]
 108 0066 DB68     		ldr	r3, [r3, #12]
 109              		.loc 1 585 6
 110 0068 012B     		cmp	r3, #1
 111 006a 08D1     		bne	.L5
 586:Drivers/STM32L0xx_HAL_Driver/Src/stm32l0xx_hal_i2c.c ****   {
 587:Drivers/STM32L0xx_HAL_Driver/Src/stm32l0xx_hal_i2c.c ****     hi2c->Instance->OAR1 = (I2C_OAR1_OA1EN | hi2c->Init.OwnAddress1);
 112              		.loc 1 587 56
 113 006c 7B68     		ldr	r3, [r7, #4]
 114 006e 9A68     		ldr	r2, [r3, #8]
 115              		.loc 1 587 9
 116 0070 7B68     		ldr	r3, [r7, #4]
 117 0072 1B68     		ldr	r3, [r3]
 118              		.loc 1 587 44
 119 0074 8021     		movs	r1, #128
 120 0076 0902     		lsls	r1, r1, #8
 121 0078 0A43     		orrs	r2, r1
 122              		.loc 1 587 26
 123 007a 9A60     		str	r2, [r3, #8]
 124 007c 07E0     		b	.L6
 125              	.L5:
 588:Drivers/STM32L0xx_HAL_Driver/Src/stm32l0xx_hal_i2c.c ****   }
 589:Drivers/STM32L0xx_HAL_Driver/Src/stm32l0xx_hal_i2c.c ****   else /* I2C_ADDRESSINGMODE_10BIT */
 590:Drivers/STM32L0xx_HAL_Driver/Src/stm32l0xx_hal_i2c.c ****   {
 591:Drivers/STM32L0xx_HAL_Driver/Src/stm32l0xx_hal_i2c.c ****     hi2c->Instance->OAR1 = (I2C_OAR1_OA1EN | I2C_OAR1_OA1MODE | hi2c->Init.OwnAddress1);
 126              		.loc 1 591 75
 127 007e 7B68     		ldr	r3, [r7, #4]
 128 0080 9A68     		ldr	r2, [r3, #8]
 129              		.loc 1 591 9
 130 0082 7B68     		ldr	r3, [r7, #4]
 131 0084 1B68     		ldr	r3, [r3]
 132              		.loc 1 591 63
 133 0086 8421     		movs	r1, #132
 134 0088 0902     		lsls	r1, r1, #8
 135 008a 0A43     		orrs	r2, r1
 136              		.loc 1 591 26
 137 008c 9A60     		str	r2, [r3, #8]
 138              	.L6:
 592:Drivers/STM32L0xx_HAL_Driver/Src/stm32l0xx_hal_i2c.c ****   }
 593:Drivers/STM32L0xx_HAL_Driver/Src/stm32l0xx_hal_i2c.c **** 
 594:Drivers/STM32L0xx_HAL_Driver/Src/stm32l0xx_hal_i2c.c ****   /*---------------------------- I2Cx CR2 Configuration ----------------------*/
 595:Drivers/STM32L0xx_HAL_Driver/Src/stm32l0xx_hal_i2c.c ****   /* Configure I2Cx: Addressing Master mode */
 596:Drivers/STM32L0xx_HAL_Driver/Src/stm32l0xx_hal_i2c.c ****   if (hi2c->Init.AddressingMode == I2C_ADDRESSINGMODE_10BIT)
 139              		.loc 1 596 17
 140 008e 7B68     		ldr	r3, [r7, #4]
 141 0090 DB68     		ldr	r3, [r3, #12]
 142              		.loc 1 596 6
 143 0092 022B     		cmp	r3, #2
 144 0094 04D1     		bne	.L7
 597:Drivers/STM32L0xx_HAL_Driver/Src/stm32l0xx_hal_i2c.c ****   {
 598:Drivers/STM32L0xx_HAL_Driver/Src/stm32l0xx_hal_i2c.c ****     hi2c->Instance->CR2 = (I2C_CR2_ADD10);
ARM GAS  /var/folders/fs/dxwfnrqj18z860lwl3d6f5t00000gn/T//cc1liz9x.s 			page 14


 145              		.loc 1 598 9
 146 0096 7B68     		ldr	r3, [r7, #4]
 147 0098 1B68     		ldr	r3, [r3]
 148              		.loc 1 598 25
 149 009a 8022     		movs	r2, #128
 150 009c 1201     		lsls	r2, r2, #4
 151 009e 5A60     		str	r2, [r3, #4]
 152              	.L7:
 599:Drivers/STM32L0xx_HAL_Driver/Src/stm32l0xx_hal_i2c.c ****   }
 600:Drivers/STM32L0xx_HAL_Driver/Src/stm32l0xx_hal_i2c.c ****   /* Enable the AUTOEND by default, and enable NACK (should be disable only during Slave process */
 601:Drivers/STM32L0xx_HAL_Driver/Src/stm32l0xx_hal_i2c.c ****   hi2c->Instance->CR2 |= (I2C_CR2_AUTOEND | I2C_CR2_NACK);
 153              		.loc 1 601 7
 154 00a0 7B68     		ldr	r3, [r7, #4]
 155 00a2 1B68     		ldr	r3, [r3]
 156              		.loc 1 601 23
 157 00a4 5A68     		ldr	r2, [r3, #4]
 158              		.loc 1 601 7
 159 00a6 7B68     		ldr	r3, [r7, #4]
 160 00a8 1B68     		ldr	r3, [r3]
 161              		.loc 1 601 23
 162 00aa 1F49     		ldr	r1, .L8+8
 163 00ac 0A43     		orrs	r2, r1
 164 00ae 5A60     		str	r2, [r3, #4]
 602:Drivers/STM32L0xx_HAL_Driver/Src/stm32l0xx_hal_i2c.c **** 
 603:Drivers/STM32L0xx_HAL_Driver/Src/stm32l0xx_hal_i2c.c ****   /*---------------------------- I2Cx OAR2 Configuration ---------------------*/
 604:Drivers/STM32L0xx_HAL_Driver/Src/stm32l0xx_hal_i2c.c ****   /* Disable Own Address2 before set the Own Address2 configuration */
 605:Drivers/STM32L0xx_HAL_Driver/Src/stm32l0xx_hal_i2c.c ****   hi2c->Instance->OAR2 &= ~I2C_DUALADDRESS_ENABLE;
 165              		.loc 1 605 7
 166 00b0 7B68     		ldr	r3, [r7, #4]
 167 00b2 1B68     		ldr	r3, [r3]
 168              		.loc 1 605 24
 169 00b4 DA68     		ldr	r2, [r3, #12]
 170              		.loc 1 605 7
 171 00b6 7B68     		ldr	r3, [r7, #4]
 172 00b8 1B68     		ldr	r3, [r3]
 173              		.loc 1 605 24
 174 00ba 1A49     		ldr	r1, .L8+4
 175 00bc 0A40     		ands	r2, r1
 176 00be DA60     		str	r2, [r3, #12]
 606:Drivers/STM32L0xx_HAL_Driver/Src/stm32l0xx_hal_i2c.c **** 
 607:Drivers/STM32L0xx_HAL_Driver/Src/stm32l0xx_hal_i2c.c ****   /* Configure I2Cx: Dual mode and Own Address2 */
 608:Drivers/STM32L0xx_HAL_Driver/Src/stm32l0xx_hal_i2c.c ****   hi2c->Instance->OAR2 = (hi2c->Init.DualAddressMode | hi2c->Init.OwnAddress2 | \
 177              		.loc 1 608 37
 178 00c0 7B68     		ldr	r3, [r7, #4]
 179 00c2 1A69     		ldr	r2, [r3, #16]
 180              		.loc 1 608 66
 181 00c4 7B68     		ldr	r3, [r7, #4]
 182 00c6 5B69     		ldr	r3, [r3, #20]
 183              		.loc 1 608 54
 184 00c8 1A43     		orrs	r2, r3
 185 00ca 1100     		movs	r1, r2
 609:Drivers/STM32L0xx_HAL_Driver/Src/stm32l0xx_hal_i2c.c ****                           (hi2c->Init.OwnAddress2Masks << 8));
 186              		.loc 1 609 38
 187 00cc 7B68     		ldr	r3, [r7, #4]
 188 00ce 9B69     		ldr	r3, [r3, #24]
 189              		.loc 1 609 56
 190 00d0 1A02     		lsls	r2, r3, #8
ARM GAS  /var/folders/fs/dxwfnrqj18z860lwl3d6f5t00000gn/T//cc1liz9x.s 			page 15


 608:Drivers/STM32L0xx_HAL_Driver/Src/stm32l0xx_hal_i2c.c ****                           (hi2c->Init.OwnAddress2Masks << 8));
 191              		.loc 1 608 7
 192 00d2 7B68     		ldr	r3, [r7, #4]
 193 00d4 1B68     		ldr	r3, [r3]
 608:Drivers/STM32L0xx_HAL_Driver/Src/stm32l0xx_hal_i2c.c ****                           (hi2c->Init.OwnAddress2Masks << 8));
 194              		.loc 1 608 79
 195 00d6 0A43     		orrs	r2, r1
 608:Drivers/STM32L0xx_HAL_Driver/Src/stm32l0xx_hal_i2c.c ****                           (hi2c->Init.OwnAddress2Masks << 8));
 196              		.loc 1 608 24
 197 00d8 DA60     		str	r2, [r3, #12]
 610:Drivers/STM32L0xx_HAL_Driver/Src/stm32l0xx_hal_i2c.c **** 
 611:Drivers/STM32L0xx_HAL_Driver/Src/stm32l0xx_hal_i2c.c ****   /*---------------------------- I2Cx CR1 Configuration ----------------------*/
 612:Drivers/STM32L0xx_HAL_Driver/Src/stm32l0xx_hal_i2c.c ****   /* Configure I2Cx: Generalcall and NoStretch mode */
 613:Drivers/STM32L0xx_HAL_Driver/Src/stm32l0xx_hal_i2c.c ****   hi2c->Instance->CR1 = (hi2c->Init.GeneralCallMode | hi2c->Init.NoStretchMode);
 198              		.loc 1 613 36
 199 00da 7B68     		ldr	r3, [r7, #4]
 200 00dc D969     		ldr	r1, [r3, #28]
 201              		.loc 1 613 65
 202 00de 7B68     		ldr	r3, [r7, #4]
 203 00e0 1A6A     		ldr	r2, [r3, #32]
 204              		.loc 1 613 7
 205 00e2 7B68     		ldr	r3, [r7, #4]
 206 00e4 1B68     		ldr	r3, [r3]
 207              		.loc 1 613 53
 208 00e6 0A43     		orrs	r2, r1
 209              		.loc 1 613 23
 210 00e8 1A60     		str	r2, [r3]
 614:Drivers/STM32L0xx_HAL_Driver/Src/stm32l0xx_hal_i2c.c **** 
 615:Drivers/STM32L0xx_HAL_Driver/Src/stm32l0xx_hal_i2c.c ****   /* Enable the selected I2C peripheral */
 616:Drivers/STM32L0xx_HAL_Driver/Src/stm32l0xx_hal_i2c.c ****   __HAL_I2C_ENABLE(hi2c);
 211              		.loc 1 616 3
 212 00ea 7B68     		ldr	r3, [r7, #4]
 213 00ec 1B68     		ldr	r3, [r3]
 214 00ee 1A68     		ldr	r2, [r3]
 215 00f0 7B68     		ldr	r3, [r7, #4]
 216 00f2 1B68     		ldr	r3, [r3]
 217 00f4 0121     		movs	r1, #1
 218 00f6 0A43     		orrs	r2, r1
 219 00f8 1A60     		str	r2, [r3]
 617:Drivers/STM32L0xx_HAL_Driver/Src/stm32l0xx_hal_i2c.c **** 
 618:Drivers/STM32L0xx_HAL_Driver/Src/stm32l0xx_hal_i2c.c ****   hi2c->ErrorCode = HAL_I2C_ERROR_NONE;
 220              		.loc 1 618 19
 221 00fa 7B68     		ldr	r3, [r7, #4]
 222 00fc 0022     		movs	r2, #0
 223 00fe 5A64     		str	r2, [r3, #68]
 619:Drivers/STM32L0xx_HAL_Driver/Src/stm32l0xx_hal_i2c.c ****   hi2c->State = HAL_I2C_STATE_READY;
 224              		.loc 1 619 15
 225 0100 7B68     		ldr	r3, [r7, #4]
 226 0102 4122     		movs	r2, #65
 227 0104 2021     		movs	r1, #32
 228 0106 9954     		strb	r1, [r3, r2]
 620:Drivers/STM32L0xx_HAL_Driver/Src/stm32l0xx_hal_i2c.c ****   hi2c->PreviousState = I2C_STATE_NONE;
 229              		.loc 1 620 23
 230 0108 7B68     		ldr	r3, [r7, #4]
 231 010a 0022     		movs	r2, #0
 232 010c 1A63     		str	r2, [r3, #48]
 621:Drivers/STM32L0xx_HAL_Driver/Src/stm32l0xx_hal_i2c.c ****   hi2c->Mode = HAL_I2C_MODE_NONE;
ARM GAS  /var/folders/fs/dxwfnrqj18z860lwl3d6f5t00000gn/T//cc1liz9x.s 			page 16


 233              		.loc 1 621 14
 234 010e 7B68     		ldr	r3, [r7, #4]
 235 0110 4222     		movs	r2, #66
 236 0112 0021     		movs	r1, #0
 237 0114 9954     		strb	r1, [r3, r2]
 622:Drivers/STM32L0xx_HAL_Driver/Src/stm32l0xx_hal_i2c.c **** 
 623:Drivers/STM32L0xx_HAL_Driver/Src/stm32l0xx_hal_i2c.c ****   return HAL_OK;
 238              		.loc 1 623 10
 239 0116 0023     		movs	r3, #0
 240              	.L3:
 624:Drivers/STM32L0xx_HAL_Driver/Src/stm32l0xx_hal_i2c.c **** }
 241              		.loc 1 624 1
 242 0118 1800     		movs	r0, r3
 243 011a BD46     		mov	sp, r7
 244 011c 02B0     		add	sp, sp, #8
 245              		@ sp needed
 246 011e 80BD     		pop	{r7, pc}
 247              	.L9:
 248              		.align	2
 249              	.L8:
 250 0120 FFFFFFF0 		.word	-251658241
 251 0124 FF7FFFFF 		.word	-32769
 252 0128 00800002 		.word	33587200
 253              		.cfi_endproc
 254              	.LFE47:
 256              		.section	.text.HAL_I2C_DeInit,"ax",%progbits
 257              		.align	1
 258              		.global	HAL_I2C_DeInit
 259              		.syntax unified
 260              		.code	16
 261              		.thumb_func
 262              		.fpu softvfp
 264              	HAL_I2C_DeInit:
 265              	.LFB48:
 625:Drivers/STM32L0xx_HAL_Driver/Src/stm32l0xx_hal_i2c.c **** 
 626:Drivers/STM32L0xx_HAL_Driver/Src/stm32l0xx_hal_i2c.c **** /**
 627:Drivers/STM32L0xx_HAL_Driver/Src/stm32l0xx_hal_i2c.c ****   * @brief  DeInitialize the I2C peripheral.
 628:Drivers/STM32L0xx_HAL_Driver/Src/stm32l0xx_hal_i2c.c ****   * @param  hi2c Pointer to a I2C_HandleTypeDef structure that contains
 629:Drivers/STM32L0xx_HAL_Driver/Src/stm32l0xx_hal_i2c.c ****   *                the configuration information for the specified I2C.
 630:Drivers/STM32L0xx_HAL_Driver/Src/stm32l0xx_hal_i2c.c ****   * @retval HAL status
 631:Drivers/STM32L0xx_HAL_Driver/Src/stm32l0xx_hal_i2c.c ****   */
 632:Drivers/STM32L0xx_HAL_Driver/Src/stm32l0xx_hal_i2c.c **** HAL_StatusTypeDef HAL_I2C_DeInit(I2C_HandleTypeDef *hi2c)
 633:Drivers/STM32L0xx_HAL_Driver/Src/stm32l0xx_hal_i2c.c **** {
 266              		.loc 1 633 1
 267              		.cfi_startproc
 268              		@ args = 0, pretend = 0, frame = 8
 269              		@ frame_needed = 1, uses_anonymous_args = 0
 270 0000 80B5     		push	{r7, lr}
 271              	.LCFI3:
 272              		.cfi_def_cfa_offset 8
 273              		.cfi_offset 7, -8
 274              		.cfi_offset 14, -4
 275 0002 82B0     		sub	sp, sp, #8
 276              	.LCFI4:
 277              		.cfi_def_cfa_offset 16
 278 0004 00AF     		add	r7, sp, #0
 279              	.LCFI5:
ARM GAS  /var/folders/fs/dxwfnrqj18z860lwl3d6f5t00000gn/T//cc1liz9x.s 			page 17


 280              		.cfi_def_cfa_register 7
 281 0006 7860     		str	r0, [r7, #4]
 634:Drivers/STM32L0xx_HAL_Driver/Src/stm32l0xx_hal_i2c.c ****   /* Check the I2C handle allocation */
 635:Drivers/STM32L0xx_HAL_Driver/Src/stm32l0xx_hal_i2c.c ****   if (hi2c == NULL)
 282              		.loc 1 635 6
 283 0008 7B68     		ldr	r3, [r7, #4]
 284 000a 002B     		cmp	r3, #0
 285 000c 01D1     		bne	.L11
 636:Drivers/STM32L0xx_HAL_Driver/Src/stm32l0xx_hal_i2c.c ****   {
 637:Drivers/STM32L0xx_HAL_Driver/Src/stm32l0xx_hal_i2c.c ****     return HAL_ERROR;
 286              		.loc 1 637 12
 287 000e 0123     		movs	r3, #1
 288 0010 22E0     		b	.L12
 289              	.L11:
 638:Drivers/STM32L0xx_HAL_Driver/Src/stm32l0xx_hal_i2c.c ****   }
 639:Drivers/STM32L0xx_HAL_Driver/Src/stm32l0xx_hal_i2c.c **** 
 640:Drivers/STM32L0xx_HAL_Driver/Src/stm32l0xx_hal_i2c.c ****   /* Check the parameters */
 641:Drivers/STM32L0xx_HAL_Driver/Src/stm32l0xx_hal_i2c.c ****   assert_param(IS_I2C_ALL_INSTANCE(hi2c->Instance));
 642:Drivers/STM32L0xx_HAL_Driver/Src/stm32l0xx_hal_i2c.c **** 
 643:Drivers/STM32L0xx_HAL_Driver/Src/stm32l0xx_hal_i2c.c ****   hi2c->State = HAL_I2C_STATE_BUSY;
 290              		.loc 1 643 15
 291 0012 7B68     		ldr	r3, [r7, #4]
 292 0014 4122     		movs	r2, #65
 293 0016 2421     		movs	r1, #36
 294 0018 9954     		strb	r1, [r3, r2]
 644:Drivers/STM32L0xx_HAL_Driver/Src/stm32l0xx_hal_i2c.c **** 
 645:Drivers/STM32L0xx_HAL_Driver/Src/stm32l0xx_hal_i2c.c ****   /* Disable the I2C Peripheral Clock */
 646:Drivers/STM32L0xx_HAL_Driver/Src/stm32l0xx_hal_i2c.c ****   __HAL_I2C_DISABLE(hi2c);
 295              		.loc 1 646 3
 296 001a 7B68     		ldr	r3, [r7, #4]
 297 001c 1B68     		ldr	r3, [r3]
 298 001e 1A68     		ldr	r2, [r3]
 299 0020 7B68     		ldr	r3, [r7, #4]
 300 0022 1B68     		ldr	r3, [r3]
 301 0024 0121     		movs	r1, #1
 302 0026 8A43     		bics	r2, r1
 303 0028 1A60     		str	r2, [r3]
 647:Drivers/STM32L0xx_HAL_Driver/Src/stm32l0xx_hal_i2c.c **** 
 648:Drivers/STM32L0xx_HAL_Driver/Src/stm32l0xx_hal_i2c.c **** #if (USE_HAL_I2C_REGISTER_CALLBACKS == 1)
 649:Drivers/STM32L0xx_HAL_Driver/Src/stm32l0xx_hal_i2c.c ****   if (hi2c->MspDeInitCallback == NULL)
 650:Drivers/STM32L0xx_HAL_Driver/Src/stm32l0xx_hal_i2c.c ****   {
 651:Drivers/STM32L0xx_HAL_Driver/Src/stm32l0xx_hal_i2c.c ****     hi2c->MspDeInitCallback = HAL_I2C_MspDeInit; /* Legacy weak MspDeInit  */
 652:Drivers/STM32L0xx_HAL_Driver/Src/stm32l0xx_hal_i2c.c ****   }
 653:Drivers/STM32L0xx_HAL_Driver/Src/stm32l0xx_hal_i2c.c **** 
 654:Drivers/STM32L0xx_HAL_Driver/Src/stm32l0xx_hal_i2c.c ****   /* DeInit the low level hardware: GPIO, CLOCK, NVIC */
 655:Drivers/STM32L0xx_HAL_Driver/Src/stm32l0xx_hal_i2c.c ****   hi2c->MspDeInitCallback(hi2c);
 656:Drivers/STM32L0xx_HAL_Driver/Src/stm32l0xx_hal_i2c.c **** #else
 657:Drivers/STM32L0xx_HAL_Driver/Src/stm32l0xx_hal_i2c.c ****   /* DeInit the low level hardware: GPIO, CLOCK, NVIC */
 658:Drivers/STM32L0xx_HAL_Driver/Src/stm32l0xx_hal_i2c.c ****   HAL_I2C_MspDeInit(hi2c);
 304              		.loc 1 658 3
 305 002a 7B68     		ldr	r3, [r7, #4]
 306 002c 1800     		movs	r0, r3
 307 002e FFF7FEFF 		bl	HAL_I2C_MspDeInit
 659:Drivers/STM32L0xx_HAL_Driver/Src/stm32l0xx_hal_i2c.c **** #endif /* USE_HAL_I2C_REGISTER_CALLBACKS */
 660:Drivers/STM32L0xx_HAL_Driver/Src/stm32l0xx_hal_i2c.c **** 
 661:Drivers/STM32L0xx_HAL_Driver/Src/stm32l0xx_hal_i2c.c ****   hi2c->ErrorCode = HAL_I2C_ERROR_NONE;
 308              		.loc 1 661 19
ARM GAS  /var/folders/fs/dxwfnrqj18z860lwl3d6f5t00000gn/T//cc1liz9x.s 			page 18


 309 0032 7B68     		ldr	r3, [r7, #4]
 310 0034 0022     		movs	r2, #0
 311 0036 5A64     		str	r2, [r3, #68]
 662:Drivers/STM32L0xx_HAL_Driver/Src/stm32l0xx_hal_i2c.c ****   hi2c->State = HAL_I2C_STATE_RESET;
 312              		.loc 1 662 15
 313 0038 7B68     		ldr	r3, [r7, #4]
 314 003a 4122     		movs	r2, #65
 315 003c 0021     		movs	r1, #0
 316 003e 9954     		strb	r1, [r3, r2]
 663:Drivers/STM32L0xx_HAL_Driver/Src/stm32l0xx_hal_i2c.c ****   hi2c->PreviousState = I2C_STATE_NONE;
 317              		.loc 1 663 23
 318 0040 7B68     		ldr	r3, [r7, #4]
 319 0042 0022     		movs	r2, #0
 320 0044 1A63     		str	r2, [r3, #48]
 664:Drivers/STM32L0xx_HAL_Driver/Src/stm32l0xx_hal_i2c.c ****   hi2c->Mode = HAL_I2C_MODE_NONE;
 321              		.loc 1 664 14
 322 0046 7B68     		ldr	r3, [r7, #4]
 323 0048 4222     		movs	r2, #66
 324 004a 0021     		movs	r1, #0
 325 004c 9954     		strb	r1, [r3, r2]
 665:Drivers/STM32L0xx_HAL_Driver/Src/stm32l0xx_hal_i2c.c **** 
 666:Drivers/STM32L0xx_HAL_Driver/Src/stm32l0xx_hal_i2c.c ****   /* Release Lock */
 667:Drivers/STM32L0xx_HAL_Driver/Src/stm32l0xx_hal_i2c.c ****   __HAL_UNLOCK(hi2c);
 326              		.loc 1 667 3
 327 004e 7B68     		ldr	r3, [r7, #4]
 328 0050 4022     		movs	r2, #64
 329 0052 0021     		movs	r1, #0
 330 0054 9954     		strb	r1, [r3, r2]
 668:Drivers/STM32L0xx_HAL_Driver/Src/stm32l0xx_hal_i2c.c **** 
 669:Drivers/STM32L0xx_HAL_Driver/Src/stm32l0xx_hal_i2c.c ****   return HAL_OK;
 331              		.loc 1 669 10
 332 0056 0023     		movs	r3, #0
 333              	.L12:
 670:Drivers/STM32L0xx_HAL_Driver/Src/stm32l0xx_hal_i2c.c **** }
 334              		.loc 1 670 1
 335 0058 1800     		movs	r0, r3
 336 005a BD46     		mov	sp, r7
 337 005c 02B0     		add	sp, sp, #8
 338              		@ sp needed
 339 005e 80BD     		pop	{r7, pc}
 340              		.cfi_endproc
 341              	.LFE48:
 343              		.section	.text.HAL_I2C_MspInit,"ax",%progbits
 344              		.align	1
 345              		.weak	HAL_I2C_MspInit
 346              		.syntax unified
 347              		.code	16
 348              		.thumb_func
 349              		.fpu softvfp
 351              	HAL_I2C_MspInit:
 352              	.LFB49:
 671:Drivers/STM32L0xx_HAL_Driver/Src/stm32l0xx_hal_i2c.c **** 
 672:Drivers/STM32L0xx_HAL_Driver/Src/stm32l0xx_hal_i2c.c **** /**
 673:Drivers/STM32L0xx_HAL_Driver/Src/stm32l0xx_hal_i2c.c ****   * @brief Initialize the I2C MSP.
 674:Drivers/STM32L0xx_HAL_Driver/Src/stm32l0xx_hal_i2c.c ****   * @param  hi2c Pointer to a I2C_HandleTypeDef structure that contains
 675:Drivers/STM32L0xx_HAL_Driver/Src/stm32l0xx_hal_i2c.c ****   *                the configuration information for the specified I2C.
 676:Drivers/STM32L0xx_HAL_Driver/Src/stm32l0xx_hal_i2c.c ****   * @retval None
ARM GAS  /var/folders/fs/dxwfnrqj18z860lwl3d6f5t00000gn/T//cc1liz9x.s 			page 19


 677:Drivers/STM32L0xx_HAL_Driver/Src/stm32l0xx_hal_i2c.c ****   */
 678:Drivers/STM32L0xx_HAL_Driver/Src/stm32l0xx_hal_i2c.c **** __weak void HAL_I2C_MspInit(I2C_HandleTypeDef *hi2c)
 679:Drivers/STM32L0xx_HAL_Driver/Src/stm32l0xx_hal_i2c.c **** {
 353              		.loc 1 679 1
 354              		.cfi_startproc
 355              		@ args = 0, pretend = 0, frame = 8
 356              		@ frame_needed = 1, uses_anonymous_args = 0
 357 0000 80B5     		push	{r7, lr}
 358              	.LCFI6:
 359              		.cfi_def_cfa_offset 8
 360              		.cfi_offset 7, -8
 361              		.cfi_offset 14, -4
 362 0002 82B0     		sub	sp, sp, #8
 363              	.LCFI7:
 364              		.cfi_def_cfa_offset 16
 365 0004 00AF     		add	r7, sp, #0
 366              	.LCFI8:
 367              		.cfi_def_cfa_register 7
 368 0006 7860     		str	r0, [r7, #4]
 680:Drivers/STM32L0xx_HAL_Driver/Src/stm32l0xx_hal_i2c.c ****   /* Prevent unused argument(s) compilation warning */
 681:Drivers/STM32L0xx_HAL_Driver/Src/stm32l0xx_hal_i2c.c ****   UNUSED(hi2c);
 682:Drivers/STM32L0xx_HAL_Driver/Src/stm32l0xx_hal_i2c.c **** 
 683:Drivers/STM32L0xx_HAL_Driver/Src/stm32l0xx_hal_i2c.c ****   /* NOTE : This function should not be modified, when the callback is needed,
 684:Drivers/STM32L0xx_HAL_Driver/Src/stm32l0xx_hal_i2c.c ****             the HAL_I2C_MspInit could be implemented in the user file
 685:Drivers/STM32L0xx_HAL_Driver/Src/stm32l0xx_hal_i2c.c ****    */
 686:Drivers/STM32L0xx_HAL_Driver/Src/stm32l0xx_hal_i2c.c **** }
 369              		.loc 1 686 1
 370 0008 C046     		nop
 371 000a BD46     		mov	sp, r7
 372 000c 02B0     		add	sp, sp, #8
 373              		@ sp needed
 374 000e 80BD     		pop	{r7, pc}
 375              		.cfi_endproc
 376              	.LFE49:
 378              		.section	.text.HAL_I2C_MspDeInit,"ax",%progbits
 379              		.align	1
 380              		.weak	HAL_I2C_MspDeInit
 381              		.syntax unified
 382              		.code	16
 383              		.thumb_func
 384              		.fpu softvfp
 386              	HAL_I2C_MspDeInit:
 387              	.LFB50:
 687:Drivers/STM32L0xx_HAL_Driver/Src/stm32l0xx_hal_i2c.c **** 
 688:Drivers/STM32L0xx_HAL_Driver/Src/stm32l0xx_hal_i2c.c **** /**
 689:Drivers/STM32L0xx_HAL_Driver/Src/stm32l0xx_hal_i2c.c ****   * @brief DeInitialize the I2C MSP.
 690:Drivers/STM32L0xx_HAL_Driver/Src/stm32l0xx_hal_i2c.c ****   * @param  hi2c Pointer to a I2C_HandleTypeDef structure that contains
 691:Drivers/STM32L0xx_HAL_Driver/Src/stm32l0xx_hal_i2c.c ****   *                the configuration information for the specified I2C.
 692:Drivers/STM32L0xx_HAL_Driver/Src/stm32l0xx_hal_i2c.c ****   * @retval None
 693:Drivers/STM32L0xx_HAL_Driver/Src/stm32l0xx_hal_i2c.c ****   */
 694:Drivers/STM32L0xx_HAL_Driver/Src/stm32l0xx_hal_i2c.c **** __weak void HAL_I2C_MspDeInit(I2C_HandleTypeDef *hi2c)
 695:Drivers/STM32L0xx_HAL_Driver/Src/stm32l0xx_hal_i2c.c **** {
 388              		.loc 1 695 1
 389              		.cfi_startproc
 390              		@ args = 0, pretend = 0, frame = 8
 391              		@ frame_needed = 1, uses_anonymous_args = 0
 392 0000 80B5     		push	{r7, lr}
ARM GAS  /var/folders/fs/dxwfnrqj18z860lwl3d6f5t00000gn/T//cc1liz9x.s 			page 20


 393              	.LCFI9:
 394              		.cfi_def_cfa_offset 8
 395              		.cfi_offset 7, -8
 396              		.cfi_offset 14, -4
 397 0002 82B0     		sub	sp, sp, #8
 398              	.LCFI10:
 399              		.cfi_def_cfa_offset 16
 400 0004 00AF     		add	r7, sp, #0
 401              	.LCFI11:
 402              		.cfi_def_cfa_register 7
 403 0006 7860     		str	r0, [r7, #4]
 696:Drivers/STM32L0xx_HAL_Driver/Src/stm32l0xx_hal_i2c.c ****   /* Prevent unused argument(s) compilation warning */
 697:Drivers/STM32L0xx_HAL_Driver/Src/stm32l0xx_hal_i2c.c ****   UNUSED(hi2c);
 698:Drivers/STM32L0xx_HAL_Driver/Src/stm32l0xx_hal_i2c.c **** 
 699:Drivers/STM32L0xx_HAL_Driver/Src/stm32l0xx_hal_i2c.c ****   /* NOTE : This function should not be modified, when the callback is needed,
 700:Drivers/STM32L0xx_HAL_Driver/Src/stm32l0xx_hal_i2c.c ****             the HAL_I2C_MspDeInit could be implemented in the user file
 701:Drivers/STM32L0xx_HAL_Driver/Src/stm32l0xx_hal_i2c.c ****    */
 702:Drivers/STM32L0xx_HAL_Driver/Src/stm32l0xx_hal_i2c.c **** }
 404              		.loc 1 702 1
 405 0008 C046     		nop
 406 000a BD46     		mov	sp, r7
 407 000c 02B0     		add	sp, sp, #8
 408              		@ sp needed
 409 000e 80BD     		pop	{r7, pc}
 410              		.cfi_endproc
 411              	.LFE50:
 413              		.section	.text.HAL_I2C_Master_Transmit,"ax",%progbits
 414              		.align	1
 415              		.global	HAL_I2C_Master_Transmit
 416              		.syntax unified
 417              		.code	16
 418              		.thumb_func
 419              		.fpu softvfp
 421              	HAL_I2C_Master_Transmit:
 422              	.LFB51:
 703:Drivers/STM32L0xx_HAL_Driver/Src/stm32l0xx_hal_i2c.c **** 
 704:Drivers/STM32L0xx_HAL_Driver/Src/stm32l0xx_hal_i2c.c **** #if (USE_HAL_I2C_REGISTER_CALLBACKS == 1)
 705:Drivers/STM32L0xx_HAL_Driver/Src/stm32l0xx_hal_i2c.c **** /**
 706:Drivers/STM32L0xx_HAL_Driver/Src/stm32l0xx_hal_i2c.c ****   * @brief  Register a User I2C Callback
 707:Drivers/STM32L0xx_HAL_Driver/Src/stm32l0xx_hal_i2c.c ****   *         To be used instead of the weak predefined callback
 708:Drivers/STM32L0xx_HAL_Driver/Src/stm32l0xx_hal_i2c.c ****   * @param  hi2c Pointer to a I2C_HandleTypeDef structure that contains
 709:Drivers/STM32L0xx_HAL_Driver/Src/stm32l0xx_hal_i2c.c ****   *                the configuration information for the specified I2C.
 710:Drivers/STM32L0xx_HAL_Driver/Src/stm32l0xx_hal_i2c.c ****   * @param  CallbackID ID of the callback to be registered
 711:Drivers/STM32L0xx_HAL_Driver/Src/stm32l0xx_hal_i2c.c ****   *         This parameter can be one of the following values:
 712:Drivers/STM32L0xx_HAL_Driver/Src/stm32l0xx_hal_i2c.c ****   *          @arg @ref HAL_I2C_MASTER_TX_COMPLETE_CB_ID Master Tx Transfer completed callback ID
 713:Drivers/STM32L0xx_HAL_Driver/Src/stm32l0xx_hal_i2c.c ****   *          @arg @ref HAL_I2C_MASTER_RX_COMPLETE_CB_ID Master Rx Transfer completed callback ID
 714:Drivers/STM32L0xx_HAL_Driver/Src/stm32l0xx_hal_i2c.c ****   *          @arg @ref HAL_I2C_SLAVE_TX_COMPLETE_CB_ID Slave Tx Transfer completed callback ID
 715:Drivers/STM32L0xx_HAL_Driver/Src/stm32l0xx_hal_i2c.c ****   *          @arg @ref HAL_I2C_SLAVE_RX_COMPLETE_CB_ID Slave Rx Transfer completed callback ID
 716:Drivers/STM32L0xx_HAL_Driver/Src/stm32l0xx_hal_i2c.c ****   *          @arg @ref HAL_I2C_LISTEN_COMPLETE_CB_ID Listen Complete callback ID
 717:Drivers/STM32L0xx_HAL_Driver/Src/stm32l0xx_hal_i2c.c ****   *          @arg @ref HAL_I2C_MEM_TX_COMPLETE_CB_ID Memory Tx Transfer callback ID
 718:Drivers/STM32L0xx_HAL_Driver/Src/stm32l0xx_hal_i2c.c ****   *          @arg @ref HAL_I2C_MEM_RX_COMPLETE_CB_ID Memory Rx Transfer completed callback ID
 719:Drivers/STM32L0xx_HAL_Driver/Src/stm32l0xx_hal_i2c.c ****   *          @arg @ref HAL_I2C_ERROR_CB_ID Error callback ID
 720:Drivers/STM32L0xx_HAL_Driver/Src/stm32l0xx_hal_i2c.c ****   *          @arg @ref HAL_I2C_ABORT_CB_ID Abort callback ID
 721:Drivers/STM32L0xx_HAL_Driver/Src/stm32l0xx_hal_i2c.c ****   *          @arg @ref HAL_I2C_MSPINIT_CB_ID MspInit callback ID
 722:Drivers/STM32L0xx_HAL_Driver/Src/stm32l0xx_hal_i2c.c ****   *          @arg @ref HAL_I2C_MSPDEINIT_CB_ID MspDeInit callback ID
 723:Drivers/STM32L0xx_HAL_Driver/Src/stm32l0xx_hal_i2c.c ****   * @param  pCallback pointer to the Callback function
 724:Drivers/STM32L0xx_HAL_Driver/Src/stm32l0xx_hal_i2c.c ****   * @retval HAL status
ARM GAS  /var/folders/fs/dxwfnrqj18z860lwl3d6f5t00000gn/T//cc1liz9x.s 			page 21


 725:Drivers/STM32L0xx_HAL_Driver/Src/stm32l0xx_hal_i2c.c ****   */
 726:Drivers/STM32L0xx_HAL_Driver/Src/stm32l0xx_hal_i2c.c **** HAL_StatusTypeDef HAL_I2C_RegisterCallback(I2C_HandleTypeDef *hi2c, HAL_I2C_CallbackIDTypeDef Callb
 727:Drivers/STM32L0xx_HAL_Driver/Src/stm32l0xx_hal_i2c.c ****                                            pI2C_CallbackTypeDef pCallback)
 728:Drivers/STM32L0xx_HAL_Driver/Src/stm32l0xx_hal_i2c.c **** {
 729:Drivers/STM32L0xx_HAL_Driver/Src/stm32l0xx_hal_i2c.c ****   HAL_StatusTypeDef status = HAL_OK;
 730:Drivers/STM32L0xx_HAL_Driver/Src/stm32l0xx_hal_i2c.c **** 
 731:Drivers/STM32L0xx_HAL_Driver/Src/stm32l0xx_hal_i2c.c ****   if (pCallback == NULL)
 732:Drivers/STM32L0xx_HAL_Driver/Src/stm32l0xx_hal_i2c.c ****   {
 733:Drivers/STM32L0xx_HAL_Driver/Src/stm32l0xx_hal_i2c.c ****     /* Update the error code */
 734:Drivers/STM32L0xx_HAL_Driver/Src/stm32l0xx_hal_i2c.c ****     hi2c->ErrorCode |= HAL_I2C_ERROR_INVALID_CALLBACK;
 735:Drivers/STM32L0xx_HAL_Driver/Src/stm32l0xx_hal_i2c.c **** 
 736:Drivers/STM32L0xx_HAL_Driver/Src/stm32l0xx_hal_i2c.c ****     return HAL_ERROR;
 737:Drivers/STM32L0xx_HAL_Driver/Src/stm32l0xx_hal_i2c.c ****   }
 738:Drivers/STM32L0xx_HAL_Driver/Src/stm32l0xx_hal_i2c.c ****   /* Process locked */
 739:Drivers/STM32L0xx_HAL_Driver/Src/stm32l0xx_hal_i2c.c ****   __HAL_LOCK(hi2c);
 740:Drivers/STM32L0xx_HAL_Driver/Src/stm32l0xx_hal_i2c.c **** 
 741:Drivers/STM32L0xx_HAL_Driver/Src/stm32l0xx_hal_i2c.c ****   if (HAL_I2C_STATE_READY == hi2c->State)
 742:Drivers/STM32L0xx_HAL_Driver/Src/stm32l0xx_hal_i2c.c ****   {
 743:Drivers/STM32L0xx_HAL_Driver/Src/stm32l0xx_hal_i2c.c ****     switch (CallbackID)
 744:Drivers/STM32L0xx_HAL_Driver/Src/stm32l0xx_hal_i2c.c ****     {
 745:Drivers/STM32L0xx_HAL_Driver/Src/stm32l0xx_hal_i2c.c ****       case HAL_I2C_MASTER_TX_COMPLETE_CB_ID :
 746:Drivers/STM32L0xx_HAL_Driver/Src/stm32l0xx_hal_i2c.c ****         hi2c->MasterTxCpltCallback = pCallback;
 747:Drivers/STM32L0xx_HAL_Driver/Src/stm32l0xx_hal_i2c.c ****         break;
 748:Drivers/STM32L0xx_HAL_Driver/Src/stm32l0xx_hal_i2c.c **** 
 749:Drivers/STM32L0xx_HAL_Driver/Src/stm32l0xx_hal_i2c.c ****       case HAL_I2C_MASTER_RX_COMPLETE_CB_ID :
 750:Drivers/STM32L0xx_HAL_Driver/Src/stm32l0xx_hal_i2c.c ****         hi2c->MasterRxCpltCallback = pCallback;
 751:Drivers/STM32L0xx_HAL_Driver/Src/stm32l0xx_hal_i2c.c ****         break;
 752:Drivers/STM32L0xx_HAL_Driver/Src/stm32l0xx_hal_i2c.c **** 
 753:Drivers/STM32L0xx_HAL_Driver/Src/stm32l0xx_hal_i2c.c ****       case HAL_I2C_SLAVE_TX_COMPLETE_CB_ID :
 754:Drivers/STM32L0xx_HAL_Driver/Src/stm32l0xx_hal_i2c.c ****         hi2c->SlaveTxCpltCallback = pCallback;
 755:Drivers/STM32L0xx_HAL_Driver/Src/stm32l0xx_hal_i2c.c ****         break;
 756:Drivers/STM32L0xx_HAL_Driver/Src/stm32l0xx_hal_i2c.c **** 
 757:Drivers/STM32L0xx_HAL_Driver/Src/stm32l0xx_hal_i2c.c ****       case HAL_I2C_SLAVE_RX_COMPLETE_CB_ID :
 758:Drivers/STM32L0xx_HAL_Driver/Src/stm32l0xx_hal_i2c.c ****         hi2c->SlaveRxCpltCallback = pCallback;
 759:Drivers/STM32L0xx_HAL_Driver/Src/stm32l0xx_hal_i2c.c ****         break;
 760:Drivers/STM32L0xx_HAL_Driver/Src/stm32l0xx_hal_i2c.c **** 
 761:Drivers/STM32L0xx_HAL_Driver/Src/stm32l0xx_hal_i2c.c ****       case HAL_I2C_LISTEN_COMPLETE_CB_ID :
 762:Drivers/STM32L0xx_HAL_Driver/Src/stm32l0xx_hal_i2c.c ****         hi2c->ListenCpltCallback = pCallback;
 763:Drivers/STM32L0xx_HAL_Driver/Src/stm32l0xx_hal_i2c.c ****         break;
 764:Drivers/STM32L0xx_HAL_Driver/Src/stm32l0xx_hal_i2c.c **** 
 765:Drivers/STM32L0xx_HAL_Driver/Src/stm32l0xx_hal_i2c.c ****       case HAL_I2C_MEM_TX_COMPLETE_CB_ID :
 766:Drivers/STM32L0xx_HAL_Driver/Src/stm32l0xx_hal_i2c.c ****         hi2c->MemTxCpltCallback = pCallback;
 767:Drivers/STM32L0xx_HAL_Driver/Src/stm32l0xx_hal_i2c.c ****         break;
 768:Drivers/STM32L0xx_HAL_Driver/Src/stm32l0xx_hal_i2c.c **** 
 769:Drivers/STM32L0xx_HAL_Driver/Src/stm32l0xx_hal_i2c.c ****       case HAL_I2C_MEM_RX_COMPLETE_CB_ID :
 770:Drivers/STM32L0xx_HAL_Driver/Src/stm32l0xx_hal_i2c.c ****         hi2c->MemRxCpltCallback = pCallback;
 771:Drivers/STM32L0xx_HAL_Driver/Src/stm32l0xx_hal_i2c.c ****         break;
 772:Drivers/STM32L0xx_HAL_Driver/Src/stm32l0xx_hal_i2c.c **** 
 773:Drivers/STM32L0xx_HAL_Driver/Src/stm32l0xx_hal_i2c.c ****       case HAL_I2C_ERROR_CB_ID :
 774:Drivers/STM32L0xx_HAL_Driver/Src/stm32l0xx_hal_i2c.c ****         hi2c->ErrorCallback = pCallback;
 775:Drivers/STM32L0xx_HAL_Driver/Src/stm32l0xx_hal_i2c.c ****         break;
 776:Drivers/STM32L0xx_HAL_Driver/Src/stm32l0xx_hal_i2c.c **** 
 777:Drivers/STM32L0xx_HAL_Driver/Src/stm32l0xx_hal_i2c.c ****       case HAL_I2C_ABORT_CB_ID :
 778:Drivers/STM32L0xx_HAL_Driver/Src/stm32l0xx_hal_i2c.c ****         hi2c->AbortCpltCallback = pCallback;
 779:Drivers/STM32L0xx_HAL_Driver/Src/stm32l0xx_hal_i2c.c ****         break;
 780:Drivers/STM32L0xx_HAL_Driver/Src/stm32l0xx_hal_i2c.c **** 
 781:Drivers/STM32L0xx_HAL_Driver/Src/stm32l0xx_hal_i2c.c ****       case HAL_I2C_MSPINIT_CB_ID :
ARM GAS  /var/folders/fs/dxwfnrqj18z860lwl3d6f5t00000gn/T//cc1liz9x.s 			page 22


 782:Drivers/STM32L0xx_HAL_Driver/Src/stm32l0xx_hal_i2c.c ****         hi2c->MspInitCallback = pCallback;
 783:Drivers/STM32L0xx_HAL_Driver/Src/stm32l0xx_hal_i2c.c ****         break;
 784:Drivers/STM32L0xx_HAL_Driver/Src/stm32l0xx_hal_i2c.c **** 
 785:Drivers/STM32L0xx_HAL_Driver/Src/stm32l0xx_hal_i2c.c ****       case HAL_I2C_MSPDEINIT_CB_ID :
 786:Drivers/STM32L0xx_HAL_Driver/Src/stm32l0xx_hal_i2c.c ****         hi2c->MspDeInitCallback = pCallback;
 787:Drivers/STM32L0xx_HAL_Driver/Src/stm32l0xx_hal_i2c.c ****         break;
 788:Drivers/STM32L0xx_HAL_Driver/Src/stm32l0xx_hal_i2c.c **** 
 789:Drivers/STM32L0xx_HAL_Driver/Src/stm32l0xx_hal_i2c.c ****       default :
 790:Drivers/STM32L0xx_HAL_Driver/Src/stm32l0xx_hal_i2c.c ****         /* Update the error code */
 791:Drivers/STM32L0xx_HAL_Driver/Src/stm32l0xx_hal_i2c.c ****         hi2c->ErrorCode |= HAL_I2C_ERROR_INVALID_CALLBACK;
 792:Drivers/STM32L0xx_HAL_Driver/Src/stm32l0xx_hal_i2c.c **** 
 793:Drivers/STM32L0xx_HAL_Driver/Src/stm32l0xx_hal_i2c.c ****         /* Return error status */
 794:Drivers/STM32L0xx_HAL_Driver/Src/stm32l0xx_hal_i2c.c ****         status =  HAL_ERROR;
 795:Drivers/STM32L0xx_HAL_Driver/Src/stm32l0xx_hal_i2c.c ****         break;
 796:Drivers/STM32L0xx_HAL_Driver/Src/stm32l0xx_hal_i2c.c ****     }
 797:Drivers/STM32L0xx_HAL_Driver/Src/stm32l0xx_hal_i2c.c ****   }
 798:Drivers/STM32L0xx_HAL_Driver/Src/stm32l0xx_hal_i2c.c ****   else if (HAL_I2C_STATE_RESET == hi2c->State)
 799:Drivers/STM32L0xx_HAL_Driver/Src/stm32l0xx_hal_i2c.c ****   {
 800:Drivers/STM32L0xx_HAL_Driver/Src/stm32l0xx_hal_i2c.c ****     switch (CallbackID)
 801:Drivers/STM32L0xx_HAL_Driver/Src/stm32l0xx_hal_i2c.c ****     {
 802:Drivers/STM32L0xx_HAL_Driver/Src/stm32l0xx_hal_i2c.c ****       case HAL_I2C_MSPINIT_CB_ID :
 803:Drivers/STM32L0xx_HAL_Driver/Src/stm32l0xx_hal_i2c.c ****         hi2c->MspInitCallback = pCallback;
 804:Drivers/STM32L0xx_HAL_Driver/Src/stm32l0xx_hal_i2c.c ****         break;
 805:Drivers/STM32L0xx_HAL_Driver/Src/stm32l0xx_hal_i2c.c **** 
 806:Drivers/STM32L0xx_HAL_Driver/Src/stm32l0xx_hal_i2c.c ****       case HAL_I2C_MSPDEINIT_CB_ID :
 807:Drivers/STM32L0xx_HAL_Driver/Src/stm32l0xx_hal_i2c.c ****         hi2c->MspDeInitCallback = pCallback;
 808:Drivers/STM32L0xx_HAL_Driver/Src/stm32l0xx_hal_i2c.c ****         break;
 809:Drivers/STM32L0xx_HAL_Driver/Src/stm32l0xx_hal_i2c.c **** 
 810:Drivers/STM32L0xx_HAL_Driver/Src/stm32l0xx_hal_i2c.c ****       default :
 811:Drivers/STM32L0xx_HAL_Driver/Src/stm32l0xx_hal_i2c.c ****         /* Update the error code */
 812:Drivers/STM32L0xx_HAL_Driver/Src/stm32l0xx_hal_i2c.c ****         hi2c->ErrorCode |= HAL_I2C_ERROR_INVALID_CALLBACK;
 813:Drivers/STM32L0xx_HAL_Driver/Src/stm32l0xx_hal_i2c.c **** 
 814:Drivers/STM32L0xx_HAL_Driver/Src/stm32l0xx_hal_i2c.c ****         /* Return error status */
 815:Drivers/STM32L0xx_HAL_Driver/Src/stm32l0xx_hal_i2c.c ****         status =  HAL_ERROR;
 816:Drivers/STM32L0xx_HAL_Driver/Src/stm32l0xx_hal_i2c.c ****         break;
 817:Drivers/STM32L0xx_HAL_Driver/Src/stm32l0xx_hal_i2c.c ****     }
 818:Drivers/STM32L0xx_HAL_Driver/Src/stm32l0xx_hal_i2c.c ****   }
 819:Drivers/STM32L0xx_HAL_Driver/Src/stm32l0xx_hal_i2c.c ****   else
 820:Drivers/STM32L0xx_HAL_Driver/Src/stm32l0xx_hal_i2c.c ****   {
 821:Drivers/STM32L0xx_HAL_Driver/Src/stm32l0xx_hal_i2c.c ****     /* Update the error code */
 822:Drivers/STM32L0xx_HAL_Driver/Src/stm32l0xx_hal_i2c.c ****     hi2c->ErrorCode |= HAL_I2C_ERROR_INVALID_CALLBACK;
 823:Drivers/STM32L0xx_HAL_Driver/Src/stm32l0xx_hal_i2c.c **** 
 824:Drivers/STM32L0xx_HAL_Driver/Src/stm32l0xx_hal_i2c.c ****     /* Return error status */
 825:Drivers/STM32L0xx_HAL_Driver/Src/stm32l0xx_hal_i2c.c ****     status =  HAL_ERROR;
 826:Drivers/STM32L0xx_HAL_Driver/Src/stm32l0xx_hal_i2c.c ****   }
 827:Drivers/STM32L0xx_HAL_Driver/Src/stm32l0xx_hal_i2c.c **** 
 828:Drivers/STM32L0xx_HAL_Driver/Src/stm32l0xx_hal_i2c.c ****   /* Release Lock */
 829:Drivers/STM32L0xx_HAL_Driver/Src/stm32l0xx_hal_i2c.c ****   __HAL_UNLOCK(hi2c);
 830:Drivers/STM32L0xx_HAL_Driver/Src/stm32l0xx_hal_i2c.c ****   return status;
 831:Drivers/STM32L0xx_HAL_Driver/Src/stm32l0xx_hal_i2c.c **** }
 832:Drivers/STM32L0xx_HAL_Driver/Src/stm32l0xx_hal_i2c.c **** 
 833:Drivers/STM32L0xx_HAL_Driver/Src/stm32l0xx_hal_i2c.c **** /**
 834:Drivers/STM32L0xx_HAL_Driver/Src/stm32l0xx_hal_i2c.c ****   * @brief  Unregister an I2C Callback
 835:Drivers/STM32L0xx_HAL_Driver/Src/stm32l0xx_hal_i2c.c ****   *         I2C callback is redirected to the weak predefined callback
 836:Drivers/STM32L0xx_HAL_Driver/Src/stm32l0xx_hal_i2c.c ****   * @param  hi2c Pointer to a I2C_HandleTypeDef structure that contains
 837:Drivers/STM32L0xx_HAL_Driver/Src/stm32l0xx_hal_i2c.c ****   *                the configuration information for the specified I2C.
 838:Drivers/STM32L0xx_HAL_Driver/Src/stm32l0xx_hal_i2c.c ****   * @param  CallbackID ID of the callback to be unregistered
ARM GAS  /var/folders/fs/dxwfnrqj18z860lwl3d6f5t00000gn/T//cc1liz9x.s 			page 23


 839:Drivers/STM32L0xx_HAL_Driver/Src/stm32l0xx_hal_i2c.c ****   *         This parameter can be one of the following values:
 840:Drivers/STM32L0xx_HAL_Driver/Src/stm32l0xx_hal_i2c.c ****   *         This parameter can be one of the following values:
 841:Drivers/STM32L0xx_HAL_Driver/Src/stm32l0xx_hal_i2c.c ****   *          @arg @ref HAL_I2C_MASTER_TX_COMPLETE_CB_ID Master Tx Transfer completed callback ID
 842:Drivers/STM32L0xx_HAL_Driver/Src/stm32l0xx_hal_i2c.c ****   *          @arg @ref HAL_I2C_MASTER_RX_COMPLETE_CB_ID Master Rx Transfer completed callback ID
 843:Drivers/STM32L0xx_HAL_Driver/Src/stm32l0xx_hal_i2c.c ****   *          @arg @ref HAL_I2C_SLAVE_TX_COMPLETE_CB_ID Slave Tx Transfer completed callback ID
 844:Drivers/STM32L0xx_HAL_Driver/Src/stm32l0xx_hal_i2c.c ****   *          @arg @ref HAL_I2C_SLAVE_RX_COMPLETE_CB_ID Slave Rx Transfer completed callback ID
 845:Drivers/STM32L0xx_HAL_Driver/Src/stm32l0xx_hal_i2c.c ****   *          @arg @ref HAL_I2C_LISTEN_COMPLETE_CB_ID Listen Complete callback ID
 846:Drivers/STM32L0xx_HAL_Driver/Src/stm32l0xx_hal_i2c.c ****   *          @arg @ref HAL_I2C_MEM_TX_COMPLETE_CB_ID Memory Tx Transfer callback ID
 847:Drivers/STM32L0xx_HAL_Driver/Src/stm32l0xx_hal_i2c.c ****   *          @arg @ref HAL_I2C_MEM_RX_COMPLETE_CB_ID Memory Rx Transfer completed callback ID
 848:Drivers/STM32L0xx_HAL_Driver/Src/stm32l0xx_hal_i2c.c ****   *          @arg @ref HAL_I2C_ERROR_CB_ID Error callback ID
 849:Drivers/STM32L0xx_HAL_Driver/Src/stm32l0xx_hal_i2c.c ****   *          @arg @ref HAL_I2C_ABORT_CB_ID Abort callback ID
 850:Drivers/STM32L0xx_HAL_Driver/Src/stm32l0xx_hal_i2c.c ****   *          @arg @ref HAL_I2C_MSPINIT_CB_ID MspInit callback ID
 851:Drivers/STM32L0xx_HAL_Driver/Src/stm32l0xx_hal_i2c.c ****   *          @arg @ref HAL_I2C_MSPDEINIT_CB_ID MspDeInit callback ID
 852:Drivers/STM32L0xx_HAL_Driver/Src/stm32l0xx_hal_i2c.c ****   * @retval HAL status
 853:Drivers/STM32L0xx_HAL_Driver/Src/stm32l0xx_hal_i2c.c ****   */
 854:Drivers/STM32L0xx_HAL_Driver/Src/stm32l0xx_hal_i2c.c **** HAL_StatusTypeDef HAL_I2C_UnRegisterCallback(I2C_HandleTypeDef *hi2c, HAL_I2C_CallbackIDTypeDef Cal
 855:Drivers/STM32L0xx_HAL_Driver/Src/stm32l0xx_hal_i2c.c **** {
 856:Drivers/STM32L0xx_HAL_Driver/Src/stm32l0xx_hal_i2c.c ****   HAL_StatusTypeDef status = HAL_OK;
 857:Drivers/STM32L0xx_HAL_Driver/Src/stm32l0xx_hal_i2c.c **** 
 858:Drivers/STM32L0xx_HAL_Driver/Src/stm32l0xx_hal_i2c.c ****   /* Process locked */
 859:Drivers/STM32L0xx_HAL_Driver/Src/stm32l0xx_hal_i2c.c ****   __HAL_LOCK(hi2c);
 860:Drivers/STM32L0xx_HAL_Driver/Src/stm32l0xx_hal_i2c.c **** 
 861:Drivers/STM32L0xx_HAL_Driver/Src/stm32l0xx_hal_i2c.c ****   if (HAL_I2C_STATE_READY == hi2c->State)
 862:Drivers/STM32L0xx_HAL_Driver/Src/stm32l0xx_hal_i2c.c ****   {
 863:Drivers/STM32L0xx_HAL_Driver/Src/stm32l0xx_hal_i2c.c ****     switch (CallbackID)
 864:Drivers/STM32L0xx_HAL_Driver/Src/stm32l0xx_hal_i2c.c ****     {
 865:Drivers/STM32L0xx_HAL_Driver/Src/stm32l0xx_hal_i2c.c ****       case HAL_I2C_MASTER_TX_COMPLETE_CB_ID :
 866:Drivers/STM32L0xx_HAL_Driver/Src/stm32l0xx_hal_i2c.c ****         hi2c->MasterTxCpltCallback = HAL_I2C_MasterTxCpltCallback; /* Legacy weak MasterTxCpltCallb
 867:Drivers/STM32L0xx_HAL_Driver/Src/stm32l0xx_hal_i2c.c ****         break;
 868:Drivers/STM32L0xx_HAL_Driver/Src/stm32l0xx_hal_i2c.c **** 
 869:Drivers/STM32L0xx_HAL_Driver/Src/stm32l0xx_hal_i2c.c ****       case HAL_I2C_MASTER_RX_COMPLETE_CB_ID :
 870:Drivers/STM32L0xx_HAL_Driver/Src/stm32l0xx_hal_i2c.c ****         hi2c->MasterRxCpltCallback = HAL_I2C_MasterRxCpltCallback; /* Legacy weak MasterRxCpltCallb
 871:Drivers/STM32L0xx_HAL_Driver/Src/stm32l0xx_hal_i2c.c ****         break;
 872:Drivers/STM32L0xx_HAL_Driver/Src/stm32l0xx_hal_i2c.c **** 
 873:Drivers/STM32L0xx_HAL_Driver/Src/stm32l0xx_hal_i2c.c ****       case HAL_I2C_SLAVE_TX_COMPLETE_CB_ID :
 874:Drivers/STM32L0xx_HAL_Driver/Src/stm32l0xx_hal_i2c.c ****         hi2c->SlaveTxCpltCallback = HAL_I2C_SlaveTxCpltCallback;   /* Legacy weak SlaveTxCpltCallba
 875:Drivers/STM32L0xx_HAL_Driver/Src/stm32l0xx_hal_i2c.c ****         break;
 876:Drivers/STM32L0xx_HAL_Driver/Src/stm32l0xx_hal_i2c.c **** 
 877:Drivers/STM32L0xx_HAL_Driver/Src/stm32l0xx_hal_i2c.c ****       case HAL_I2C_SLAVE_RX_COMPLETE_CB_ID :
 878:Drivers/STM32L0xx_HAL_Driver/Src/stm32l0xx_hal_i2c.c ****         hi2c->SlaveRxCpltCallback = HAL_I2C_SlaveRxCpltCallback;   /* Legacy weak SlaveRxCpltCallba
 879:Drivers/STM32L0xx_HAL_Driver/Src/stm32l0xx_hal_i2c.c ****         break;
 880:Drivers/STM32L0xx_HAL_Driver/Src/stm32l0xx_hal_i2c.c **** 
 881:Drivers/STM32L0xx_HAL_Driver/Src/stm32l0xx_hal_i2c.c ****       case HAL_I2C_LISTEN_COMPLETE_CB_ID :
 882:Drivers/STM32L0xx_HAL_Driver/Src/stm32l0xx_hal_i2c.c ****         hi2c->ListenCpltCallback = HAL_I2C_ListenCpltCallback;     /* Legacy weak ListenCpltCallbac
 883:Drivers/STM32L0xx_HAL_Driver/Src/stm32l0xx_hal_i2c.c ****         break;
 884:Drivers/STM32L0xx_HAL_Driver/Src/stm32l0xx_hal_i2c.c **** 
 885:Drivers/STM32L0xx_HAL_Driver/Src/stm32l0xx_hal_i2c.c ****       case HAL_I2C_MEM_TX_COMPLETE_CB_ID :
 886:Drivers/STM32L0xx_HAL_Driver/Src/stm32l0xx_hal_i2c.c ****         hi2c->MemTxCpltCallback = HAL_I2C_MemTxCpltCallback;       /* Legacy weak MemTxCpltCallback
 887:Drivers/STM32L0xx_HAL_Driver/Src/stm32l0xx_hal_i2c.c ****         break;
 888:Drivers/STM32L0xx_HAL_Driver/Src/stm32l0xx_hal_i2c.c **** 
 889:Drivers/STM32L0xx_HAL_Driver/Src/stm32l0xx_hal_i2c.c ****       case HAL_I2C_MEM_RX_COMPLETE_CB_ID :
 890:Drivers/STM32L0xx_HAL_Driver/Src/stm32l0xx_hal_i2c.c ****         hi2c->MemRxCpltCallback = HAL_I2C_MemRxCpltCallback;       /* Legacy weak MemRxCpltCallback
 891:Drivers/STM32L0xx_HAL_Driver/Src/stm32l0xx_hal_i2c.c ****         break;
 892:Drivers/STM32L0xx_HAL_Driver/Src/stm32l0xx_hal_i2c.c **** 
 893:Drivers/STM32L0xx_HAL_Driver/Src/stm32l0xx_hal_i2c.c ****       case HAL_I2C_ERROR_CB_ID :
 894:Drivers/STM32L0xx_HAL_Driver/Src/stm32l0xx_hal_i2c.c ****         hi2c->ErrorCallback = HAL_I2C_ErrorCallback;               /* Legacy weak ErrorCallback    
 895:Drivers/STM32L0xx_HAL_Driver/Src/stm32l0xx_hal_i2c.c ****         break;
ARM GAS  /var/folders/fs/dxwfnrqj18z860lwl3d6f5t00000gn/T//cc1liz9x.s 			page 24


 896:Drivers/STM32L0xx_HAL_Driver/Src/stm32l0xx_hal_i2c.c **** 
 897:Drivers/STM32L0xx_HAL_Driver/Src/stm32l0xx_hal_i2c.c ****       case HAL_I2C_ABORT_CB_ID :
 898:Drivers/STM32L0xx_HAL_Driver/Src/stm32l0xx_hal_i2c.c ****         hi2c->AbortCpltCallback = HAL_I2C_AbortCpltCallback;       /* Legacy weak AbortCpltCallback
 899:Drivers/STM32L0xx_HAL_Driver/Src/stm32l0xx_hal_i2c.c ****         break;
 900:Drivers/STM32L0xx_HAL_Driver/Src/stm32l0xx_hal_i2c.c **** 
 901:Drivers/STM32L0xx_HAL_Driver/Src/stm32l0xx_hal_i2c.c ****       case HAL_I2C_MSPINIT_CB_ID :
 902:Drivers/STM32L0xx_HAL_Driver/Src/stm32l0xx_hal_i2c.c ****         hi2c->MspInitCallback = HAL_I2C_MspInit;                   /* Legacy weak MspInit          
 903:Drivers/STM32L0xx_HAL_Driver/Src/stm32l0xx_hal_i2c.c ****         break;
 904:Drivers/STM32L0xx_HAL_Driver/Src/stm32l0xx_hal_i2c.c **** 
 905:Drivers/STM32L0xx_HAL_Driver/Src/stm32l0xx_hal_i2c.c ****       case HAL_I2C_MSPDEINIT_CB_ID :
 906:Drivers/STM32L0xx_HAL_Driver/Src/stm32l0xx_hal_i2c.c ****         hi2c->MspDeInitCallback = HAL_I2C_MspDeInit;               /* Legacy weak MspDeInit        
 907:Drivers/STM32L0xx_HAL_Driver/Src/stm32l0xx_hal_i2c.c ****         break;
 908:Drivers/STM32L0xx_HAL_Driver/Src/stm32l0xx_hal_i2c.c **** 
 909:Drivers/STM32L0xx_HAL_Driver/Src/stm32l0xx_hal_i2c.c ****       default :
 910:Drivers/STM32L0xx_HAL_Driver/Src/stm32l0xx_hal_i2c.c ****         /* Update the error code */
 911:Drivers/STM32L0xx_HAL_Driver/Src/stm32l0xx_hal_i2c.c ****         hi2c->ErrorCode |= HAL_I2C_ERROR_INVALID_CALLBACK;
 912:Drivers/STM32L0xx_HAL_Driver/Src/stm32l0xx_hal_i2c.c **** 
 913:Drivers/STM32L0xx_HAL_Driver/Src/stm32l0xx_hal_i2c.c ****         /* Return error status */
 914:Drivers/STM32L0xx_HAL_Driver/Src/stm32l0xx_hal_i2c.c ****         status =  HAL_ERROR;
 915:Drivers/STM32L0xx_HAL_Driver/Src/stm32l0xx_hal_i2c.c ****         break;
 916:Drivers/STM32L0xx_HAL_Driver/Src/stm32l0xx_hal_i2c.c ****     }
 917:Drivers/STM32L0xx_HAL_Driver/Src/stm32l0xx_hal_i2c.c ****   }
 918:Drivers/STM32L0xx_HAL_Driver/Src/stm32l0xx_hal_i2c.c ****   else if (HAL_I2C_STATE_RESET == hi2c->State)
 919:Drivers/STM32L0xx_HAL_Driver/Src/stm32l0xx_hal_i2c.c ****   {
 920:Drivers/STM32L0xx_HAL_Driver/Src/stm32l0xx_hal_i2c.c ****     switch (CallbackID)
 921:Drivers/STM32L0xx_HAL_Driver/Src/stm32l0xx_hal_i2c.c ****     {
 922:Drivers/STM32L0xx_HAL_Driver/Src/stm32l0xx_hal_i2c.c ****       case HAL_I2C_MSPINIT_CB_ID :
 923:Drivers/STM32L0xx_HAL_Driver/Src/stm32l0xx_hal_i2c.c ****         hi2c->MspInitCallback = HAL_I2C_MspInit;                   /* Legacy weak MspInit          
 924:Drivers/STM32L0xx_HAL_Driver/Src/stm32l0xx_hal_i2c.c ****         break;
 925:Drivers/STM32L0xx_HAL_Driver/Src/stm32l0xx_hal_i2c.c **** 
 926:Drivers/STM32L0xx_HAL_Driver/Src/stm32l0xx_hal_i2c.c ****       case HAL_I2C_MSPDEINIT_CB_ID :
 927:Drivers/STM32L0xx_HAL_Driver/Src/stm32l0xx_hal_i2c.c ****         hi2c->MspDeInitCallback = HAL_I2C_MspDeInit;               /* Legacy weak MspDeInit        
 928:Drivers/STM32L0xx_HAL_Driver/Src/stm32l0xx_hal_i2c.c ****         break;
 929:Drivers/STM32L0xx_HAL_Driver/Src/stm32l0xx_hal_i2c.c **** 
 930:Drivers/STM32L0xx_HAL_Driver/Src/stm32l0xx_hal_i2c.c ****       default :
 931:Drivers/STM32L0xx_HAL_Driver/Src/stm32l0xx_hal_i2c.c ****         /* Update the error code */
 932:Drivers/STM32L0xx_HAL_Driver/Src/stm32l0xx_hal_i2c.c ****         hi2c->ErrorCode |= HAL_I2C_ERROR_INVALID_CALLBACK;
 933:Drivers/STM32L0xx_HAL_Driver/Src/stm32l0xx_hal_i2c.c **** 
 934:Drivers/STM32L0xx_HAL_Driver/Src/stm32l0xx_hal_i2c.c ****         /* Return error status */
 935:Drivers/STM32L0xx_HAL_Driver/Src/stm32l0xx_hal_i2c.c ****         status =  HAL_ERROR;
 936:Drivers/STM32L0xx_HAL_Driver/Src/stm32l0xx_hal_i2c.c ****         break;
 937:Drivers/STM32L0xx_HAL_Driver/Src/stm32l0xx_hal_i2c.c ****     }
 938:Drivers/STM32L0xx_HAL_Driver/Src/stm32l0xx_hal_i2c.c ****   }
 939:Drivers/STM32L0xx_HAL_Driver/Src/stm32l0xx_hal_i2c.c ****   else
 940:Drivers/STM32L0xx_HAL_Driver/Src/stm32l0xx_hal_i2c.c ****   {
 941:Drivers/STM32L0xx_HAL_Driver/Src/stm32l0xx_hal_i2c.c ****     /* Update the error code */
 942:Drivers/STM32L0xx_HAL_Driver/Src/stm32l0xx_hal_i2c.c ****     hi2c->ErrorCode |= HAL_I2C_ERROR_INVALID_CALLBACK;
 943:Drivers/STM32L0xx_HAL_Driver/Src/stm32l0xx_hal_i2c.c **** 
 944:Drivers/STM32L0xx_HAL_Driver/Src/stm32l0xx_hal_i2c.c ****     /* Return error status */
 945:Drivers/STM32L0xx_HAL_Driver/Src/stm32l0xx_hal_i2c.c ****     status =  HAL_ERROR;
 946:Drivers/STM32L0xx_HAL_Driver/Src/stm32l0xx_hal_i2c.c ****   }
 947:Drivers/STM32L0xx_HAL_Driver/Src/stm32l0xx_hal_i2c.c **** 
 948:Drivers/STM32L0xx_HAL_Driver/Src/stm32l0xx_hal_i2c.c ****   /* Release Lock */
 949:Drivers/STM32L0xx_HAL_Driver/Src/stm32l0xx_hal_i2c.c ****   __HAL_UNLOCK(hi2c);
 950:Drivers/STM32L0xx_HAL_Driver/Src/stm32l0xx_hal_i2c.c ****   return status;
 951:Drivers/STM32L0xx_HAL_Driver/Src/stm32l0xx_hal_i2c.c **** }
 952:Drivers/STM32L0xx_HAL_Driver/Src/stm32l0xx_hal_i2c.c **** 
ARM GAS  /var/folders/fs/dxwfnrqj18z860lwl3d6f5t00000gn/T//cc1liz9x.s 			page 25


 953:Drivers/STM32L0xx_HAL_Driver/Src/stm32l0xx_hal_i2c.c **** /**
 954:Drivers/STM32L0xx_HAL_Driver/Src/stm32l0xx_hal_i2c.c ****   * @brief  Register the Slave Address Match I2C Callback
 955:Drivers/STM32L0xx_HAL_Driver/Src/stm32l0xx_hal_i2c.c ****   *         To be used instead of the weak HAL_I2C_AddrCallback() predefined callback
 956:Drivers/STM32L0xx_HAL_Driver/Src/stm32l0xx_hal_i2c.c ****   * @param  hi2c Pointer to a I2C_HandleTypeDef structure that contains
 957:Drivers/STM32L0xx_HAL_Driver/Src/stm32l0xx_hal_i2c.c ****   *                the configuration information for the specified I2C.
 958:Drivers/STM32L0xx_HAL_Driver/Src/stm32l0xx_hal_i2c.c ****   * @param  pCallback pointer to the Address Match Callback function
 959:Drivers/STM32L0xx_HAL_Driver/Src/stm32l0xx_hal_i2c.c ****   * @retval HAL status
 960:Drivers/STM32L0xx_HAL_Driver/Src/stm32l0xx_hal_i2c.c ****   */
 961:Drivers/STM32L0xx_HAL_Driver/Src/stm32l0xx_hal_i2c.c **** HAL_StatusTypeDef HAL_I2C_RegisterAddrCallback(I2C_HandleTypeDef *hi2c, pI2C_AddrCallbackTypeDef pC
 962:Drivers/STM32L0xx_HAL_Driver/Src/stm32l0xx_hal_i2c.c **** {
 963:Drivers/STM32L0xx_HAL_Driver/Src/stm32l0xx_hal_i2c.c ****   HAL_StatusTypeDef status = HAL_OK;
 964:Drivers/STM32L0xx_HAL_Driver/Src/stm32l0xx_hal_i2c.c **** 
 965:Drivers/STM32L0xx_HAL_Driver/Src/stm32l0xx_hal_i2c.c ****   if (pCallback == NULL)
 966:Drivers/STM32L0xx_HAL_Driver/Src/stm32l0xx_hal_i2c.c ****   {
 967:Drivers/STM32L0xx_HAL_Driver/Src/stm32l0xx_hal_i2c.c ****     /* Update the error code */
 968:Drivers/STM32L0xx_HAL_Driver/Src/stm32l0xx_hal_i2c.c ****     hi2c->ErrorCode |= HAL_I2C_ERROR_INVALID_CALLBACK;
 969:Drivers/STM32L0xx_HAL_Driver/Src/stm32l0xx_hal_i2c.c **** 
 970:Drivers/STM32L0xx_HAL_Driver/Src/stm32l0xx_hal_i2c.c ****     return HAL_ERROR;
 971:Drivers/STM32L0xx_HAL_Driver/Src/stm32l0xx_hal_i2c.c ****   }
 972:Drivers/STM32L0xx_HAL_Driver/Src/stm32l0xx_hal_i2c.c ****   /* Process locked */
 973:Drivers/STM32L0xx_HAL_Driver/Src/stm32l0xx_hal_i2c.c ****   __HAL_LOCK(hi2c);
 974:Drivers/STM32L0xx_HAL_Driver/Src/stm32l0xx_hal_i2c.c **** 
 975:Drivers/STM32L0xx_HAL_Driver/Src/stm32l0xx_hal_i2c.c ****   if (HAL_I2C_STATE_READY == hi2c->State)
 976:Drivers/STM32L0xx_HAL_Driver/Src/stm32l0xx_hal_i2c.c ****   {
 977:Drivers/STM32L0xx_HAL_Driver/Src/stm32l0xx_hal_i2c.c ****     hi2c->AddrCallback = pCallback;
 978:Drivers/STM32L0xx_HAL_Driver/Src/stm32l0xx_hal_i2c.c ****   }
 979:Drivers/STM32L0xx_HAL_Driver/Src/stm32l0xx_hal_i2c.c ****   else
 980:Drivers/STM32L0xx_HAL_Driver/Src/stm32l0xx_hal_i2c.c ****   {
 981:Drivers/STM32L0xx_HAL_Driver/Src/stm32l0xx_hal_i2c.c ****     /* Update the error code */
 982:Drivers/STM32L0xx_HAL_Driver/Src/stm32l0xx_hal_i2c.c ****     hi2c->ErrorCode |= HAL_I2C_ERROR_INVALID_CALLBACK;
 983:Drivers/STM32L0xx_HAL_Driver/Src/stm32l0xx_hal_i2c.c **** 
 984:Drivers/STM32L0xx_HAL_Driver/Src/stm32l0xx_hal_i2c.c ****     /* Return error status */
 985:Drivers/STM32L0xx_HAL_Driver/Src/stm32l0xx_hal_i2c.c ****     status =  HAL_ERROR;
 986:Drivers/STM32L0xx_HAL_Driver/Src/stm32l0xx_hal_i2c.c ****   }
 987:Drivers/STM32L0xx_HAL_Driver/Src/stm32l0xx_hal_i2c.c **** 
 988:Drivers/STM32L0xx_HAL_Driver/Src/stm32l0xx_hal_i2c.c ****   /* Release Lock */
 989:Drivers/STM32L0xx_HAL_Driver/Src/stm32l0xx_hal_i2c.c ****   __HAL_UNLOCK(hi2c);
 990:Drivers/STM32L0xx_HAL_Driver/Src/stm32l0xx_hal_i2c.c ****   return status;
 991:Drivers/STM32L0xx_HAL_Driver/Src/stm32l0xx_hal_i2c.c **** }
 992:Drivers/STM32L0xx_HAL_Driver/Src/stm32l0xx_hal_i2c.c **** 
 993:Drivers/STM32L0xx_HAL_Driver/Src/stm32l0xx_hal_i2c.c **** /**
 994:Drivers/STM32L0xx_HAL_Driver/Src/stm32l0xx_hal_i2c.c ****   * @brief  UnRegister the Slave Address Match I2C Callback
 995:Drivers/STM32L0xx_HAL_Driver/Src/stm32l0xx_hal_i2c.c ****   *         Info Ready I2C Callback is redirected to the weak HAL_I2C_AddrCallback() predefined cal
 996:Drivers/STM32L0xx_HAL_Driver/Src/stm32l0xx_hal_i2c.c ****   * @param  hi2c Pointer to a I2C_HandleTypeDef structure that contains
 997:Drivers/STM32L0xx_HAL_Driver/Src/stm32l0xx_hal_i2c.c ****   *                the configuration information for the specified I2C.
 998:Drivers/STM32L0xx_HAL_Driver/Src/stm32l0xx_hal_i2c.c ****   * @retval HAL status
 999:Drivers/STM32L0xx_HAL_Driver/Src/stm32l0xx_hal_i2c.c ****   */
1000:Drivers/STM32L0xx_HAL_Driver/Src/stm32l0xx_hal_i2c.c **** HAL_StatusTypeDef HAL_I2C_UnRegisterAddrCallback(I2C_HandleTypeDef *hi2c)
1001:Drivers/STM32L0xx_HAL_Driver/Src/stm32l0xx_hal_i2c.c **** {
1002:Drivers/STM32L0xx_HAL_Driver/Src/stm32l0xx_hal_i2c.c ****   HAL_StatusTypeDef status = HAL_OK;
1003:Drivers/STM32L0xx_HAL_Driver/Src/stm32l0xx_hal_i2c.c **** 
1004:Drivers/STM32L0xx_HAL_Driver/Src/stm32l0xx_hal_i2c.c ****   /* Process locked */
1005:Drivers/STM32L0xx_HAL_Driver/Src/stm32l0xx_hal_i2c.c ****   __HAL_LOCK(hi2c);
1006:Drivers/STM32L0xx_HAL_Driver/Src/stm32l0xx_hal_i2c.c **** 
1007:Drivers/STM32L0xx_HAL_Driver/Src/stm32l0xx_hal_i2c.c ****   if (HAL_I2C_STATE_READY == hi2c->State)
1008:Drivers/STM32L0xx_HAL_Driver/Src/stm32l0xx_hal_i2c.c ****   {
1009:Drivers/STM32L0xx_HAL_Driver/Src/stm32l0xx_hal_i2c.c ****     hi2c->AddrCallback = HAL_I2C_AddrCallback; /* Legacy weak AddrCallback  */
ARM GAS  /var/folders/fs/dxwfnrqj18z860lwl3d6f5t00000gn/T//cc1liz9x.s 			page 26


1010:Drivers/STM32L0xx_HAL_Driver/Src/stm32l0xx_hal_i2c.c ****   }
1011:Drivers/STM32L0xx_HAL_Driver/Src/stm32l0xx_hal_i2c.c ****   else
1012:Drivers/STM32L0xx_HAL_Driver/Src/stm32l0xx_hal_i2c.c ****   {
1013:Drivers/STM32L0xx_HAL_Driver/Src/stm32l0xx_hal_i2c.c ****     /* Update the error code */
1014:Drivers/STM32L0xx_HAL_Driver/Src/stm32l0xx_hal_i2c.c ****     hi2c->ErrorCode |= HAL_I2C_ERROR_INVALID_CALLBACK;
1015:Drivers/STM32L0xx_HAL_Driver/Src/stm32l0xx_hal_i2c.c **** 
1016:Drivers/STM32L0xx_HAL_Driver/Src/stm32l0xx_hal_i2c.c ****     /* Return error status */
1017:Drivers/STM32L0xx_HAL_Driver/Src/stm32l0xx_hal_i2c.c ****     status =  HAL_ERROR;
1018:Drivers/STM32L0xx_HAL_Driver/Src/stm32l0xx_hal_i2c.c ****   }
1019:Drivers/STM32L0xx_HAL_Driver/Src/stm32l0xx_hal_i2c.c **** 
1020:Drivers/STM32L0xx_HAL_Driver/Src/stm32l0xx_hal_i2c.c ****   /* Release Lock */
1021:Drivers/STM32L0xx_HAL_Driver/Src/stm32l0xx_hal_i2c.c ****   __HAL_UNLOCK(hi2c);
1022:Drivers/STM32L0xx_HAL_Driver/Src/stm32l0xx_hal_i2c.c ****   return status;
1023:Drivers/STM32L0xx_HAL_Driver/Src/stm32l0xx_hal_i2c.c **** }
1024:Drivers/STM32L0xx_HAL_Driver/Src/stm32l0xx_hal_i2c.c **** 
1025:Drivers/STM32L0xx_HAL_Driver/Src/stm32l0xx_hal_i2c.c **** #endif /* USE_HAL_I2C_REGISTER_CALLBACKS */
1026:Drivers/STM32L0xx_HAL_Driver/Src/stm32l0xx_hal_i2c.c **** 
1027:Drivers/STM32L0xx_HAL_Driver/Src/stm32l0xx_hal_i2c.c **** /**
1028:Drivers/STM32L0xx_HAL_Driver/Src/stm32l0xx_hal_i2c.c ****   * @}
1029:Drivers/STM32L0xx_HAL_Driver/Src/stm32l0xx_hal_i2c.c ****   */
1030:Drivers/STM32L0xx_HAL_Driver/Src/stm32l0xx_hal_i2c.c **** 
1031:Drivers/STM32L0xx_HAL_Driver/Src/stm32l0xx_hal_i2c.c **** /** @defgroup I2C_Exported_Functions_Group2 Input and Output operation functions
1032:Drivers/STM32L0xx_HAL_Driver/Src/stm32l0xx_hal_i2c.c ****   *  @brief   Data transfers functions
1033:Drivers/STM32L0xx_HAL_Driver/Src/stm32l0xx_hal_i2c.c ****   *
1034:Drivers/STM32L0xx_HAL_Driver/Src/stm32l0xx_hal_i2c.c **** @verbatim
1035:Drivers/STM32L0xx_HAL_Driver/Src/stm32l0xx_hal_i2c.c ****  ===============================================================================
1036:Drivers/STM32L0xx_HAL_Driver/Src/stm32l0xx_hal_i2c.c ****                       ##### IO operation functions #####
1037:Drivers/STM32L0xx_HAL_Driver/Src/stm32l0xx_hal_i2c.c ****  ===============================================================================
1038:Drivers/STM32L0xx_HAL_Driver/Src/stm32l0xx_hal_i2c.c ****     [..]
1039:Drivers/STM32L0xx_HAL_Driver/Src/stm32l0xx_hal_i2c.c ****     This subsection provides a set of functions allowing to manage the I2C data
1040:Drivers/STM32L0xx_HAL_Driver/Src/stm32l0xx_hal_i2c.c ****     transfers.
1041:Drivers/STM32L0xx_HAL_Driver/Src/stm32l0xx_hal_i2c.c **** 
1042:Drivers/STM32L0xx_HAL_Driver/Src/stm32l0xx_hal_i2c.c ****     (#) There are two modes of transfer:
1043:Drivers/STM32L0xx_HAL_Driver/Src/stm32l0xx_hal_i2c.c ****        (++) Blocking mode : The communication is performed in the polling mode.
1044:Drivers/STM32L0xx_HAL_Driver/Src/stm32l0xx_hal_i2c.c ****             The status of all data processing is returned by the same function
1045:Drivers/STM32L0xx_HAL_Driver/Src/stm32l0xx_hal_i2c.c ****             after finishing transfer.
1046:Drivers/STM32L0xx_HAL_Driver/Src/stm32l0xx_hal_i2c.c ****        (++) No-Blocking mode : The communication is performed using Interrupts
1047:Drivers/STM32L0xx_HAL_Driver/Src/stm32l0xx_hal_i2c.c ****             or DMA. These functions return the status of the transfer startup.
1048:Drivers/STM32L0xx_HAL_Driver/Src/stm32l0xx_hal_i2c.c ****             The end of the data processing will be indicated through the
1049:Drivers/STM32L0xx_HAL_Driver/Src/stm32l0xx_hal_i2c.c ****             dedicated I2C IRQ when using Interrupt mode or the DMA IRQ when
1050:Drivers/STM32L0xx_HAL_Driver/Src/stm32l0xx_hal_i2c.c ****             using DMA mode.
1051:Drivers/STM32L0xx_HAL_Driver/Src/stm32l0xx_hal_i2c.c **** 
1052:Drivers/STM32L0xx_HAL_Driver/Src/stm32l0xx_hal_i2c.c ****     (#) Blocking mode functions are :
1053:Drivers/STM32L0xx_HAL_Driver/Src/stm32l0xx_hal_i2c.c ****         (++) HAL_I2C_Master_Transmit()
1054:Drivers/STM32L0xx_HAL_Driver/Src/stm32l0xx_hal_i2c.c ****         (++) HAL_I2C_Master_Receive()
1055:Drivers/STM32L0xx_HAL_Driver/Src/stm32l0xx_hal_i2c.c ****         (++) HAL_I2C_Slave_Transmit()
1056:Drivers/STM32L0xx_HAL_Driver/Src/stm32l0xx_hal_i2c.c ****         (++) HAL_I2C_Slave_Receive()
1057:Drivers/STM32L0xx_HAL_Driver/Src/stm32l0xx_hal_i2c.c ****         (++) HAL_I2C_Mem_Write()
1058:Drivers/STM32L0xx_HAL_Driver/Src/stm32l0xx_hal_i2c.c ****         (++) HAL_I2C_Mem_Read()
1059:Drivers/STM32L0xx_HAL_Driver/Src/stm32l0xx_hal_i2c.c ****         (++) HAL_I2C_IsDeviceReady()
1060:Drivers/STM32L0xx_HAL_Driver/Src/stm32l0xx_hal_i2c.c **** 
1061:Drivers/STM32L0xx_HAL_Driver/Src/stm32l0xx_hal_i2c.c ****     (#) No-Blocking mode functions with Interrupt are :
1062:Drivers/STM32L0xx_HAL_Driver/Src/stm32l0xx_hal_i2c.c ****         (++) HAL_I2C_Master_Transmit_IT()
1063:Drivers/STM32L0xx_HAL_Driver/Src/stm32l0xx_hal_i2c.c ****         (++) HAL_I2C_Master_Receive_IT()
1064:Drivers/STM32L0xx_HAL_Driver/Src/stm32l0xx_hal_i2c.c ****         (++) HAL_I2C_Slave_Transmit_IT()
1065:Drivers/STM32L0xx_HAL_Driver/Src/stm32l0xx_hal_i2c.c ****         (++) HAL_I2C_Slave_Receive_IT()
1066:Drivers/STM32L0xx_HAL_Driver/Src/stm32l0xx_hal_i2c.c ****         (++) HAL_I2C_Mem_Write_IT()
ARM GAS  /var/folders/fs/dxwfnrqj18z860lwl3d6f5t00000gn/T//cc1liz9x.s 			page 27


1067:Drivers/STM32L0xx_HAL_Driver/Src/stm32l0xx_hal_i2c.c ****         (++) HAL_I2C_Mem_Read_IT()
1068:Drivers/STM32L0xx_HAL_Driver/Src/stm32l0xx_hal_i2c.c ****         (++) HAL_I2C_Master_Seq_Transmit_IT()
1069:Drivers/STM32L0xx_HAL_Driver/Src/stm32l0xx_hal_i2c.c ****         (++) HAL_I2C_Master_Seq_Receive_IT()
1070:Drivers/STM32L0xx_HAL_Driver/Src/stm32l0xx_hal_i2c.c ****         (++) HAL_I2C_Slave_Seq_Transmit_IT()
1071:Drivers/STM32L0xx_HAL_Driver/Src/stm32l0xx_hal_i2c.c ****         (++) HAL_I2C_Slave_Seq_Receive_IT()
1072:Drivers/STM32L0xx_HAL_Driver/Src/stm32l0xx_hal_i2c.c ****         (++) HAL_I2C_EnableListen_IT()
1073:Drivers/STM32L0xx_HAL_Driver/Src/stm32l0xx_hal_i2c.c ****         (++) HAL_I2C_DisableListen_IT()
1074:Drivers/STM32L0xx_HAL_Driver/Src/stm32l0xx_hal_i2c.c ****         (++) HAL_I2C_Master_Abort_IT()
1075:Drivers/STM32L0xx_HAL_Driver/Src/stm32l0xx_hal_i2c.c **** 
1076:Drivers/STM32L0xx_HAL_Driver/Src/stm32l0xx_hal_i2c.c ****     (#) No-Blocking mode functions with DMA are :
1077:Drivers/STM32L0xx_HAL_Driver/Src/stm32l0xx_hal_i2c.c ****         (++) HAL_I2C_Master_Transmit_DMA()
1078:Drivers/STM32L0xx_HAL_Driver/Src/stm32l0xx_hal_i2c.c ****         (++) HAL_I2C_Master_Receive_DMA()
1079:Drivers/STM32L0xx_HAL_Driver/Src/stm32l0xx_hal_i2c.c ****         (++) HAL_I2C_Slave_Transmit_DMA()
1080:Drivers/STM32L0xx_HAL_Driver/Src/stm32l0xx_hal_i2c.c ****         (++) HAL_I2C_Slave_Receive_DMA()
1081:Drivers/STM32L0xx_HAL_Driver/Src/stm32l0xx_hal_i2c.c ****         (++) HAL_I2C_Mem_Write_DMA()
1082:Drivers/STM32L0xx_HAL_Driver/Src/stm32l0xx_hal_i2c.c ****         (++) HAL_I2C_Mem_Read_DMA()
1083:Drivers/STM32L0xx_HAL_Driver/Src/stm32l0xx_hal_i2c.c ****         (++) HAL_I2C_Master_Seq_Transmit_DMA()
1084:Drivers/STM32L0xx_HAL_Driver/Src/stm32l0xx_hal_i2c.c ****         (++) HAL_I2C_Master_Seq_Receive_DMA()
1085:Drivers/STM32L0xx_HAL_Driver/Src/stm32l0xx_hal_i2c.c ****         (++) HAL_I2C_Slave_Seq_Transmit_DMA()
1086:Drivers/STM32L0xx_HAL_Driver/Src/stm32l0xx_hal_i2c.c ****         (++) HAL_I2C_Slave_Seq_Receive_DMA()
1087:Drivers/STM32L0xx_HAL_Driver/Src/stm32l0xx_hal_i2c.c **** 
1088:Drivers/STM32L0xx_HAL_Driver/Src/stm32l0xx_hal_i2c.c ****     (#) A set of Transfer Complete Callbacks are provided in non Blocking mode:
1089:Drivers/STM32L0xx_HAL_Driver/Src/stm32l0xx_hal_i2c.c ****         (++) HAL_I2C_MasterTxCpltCallback()
1090:Drivers/STM32L0xx_HAL_Driver/Src/stm32l0xx_hal_i2c.c ****         (++) HAL_I2C_MasterRxCpltCallback()
1091:Drivers/STM32L0xx_HAL_Driver/Src/stm32l0xx_hal_i2c.c ****         (++) HAL_I2C_SlaveTxCpltCallback()
1092:Drivers/STM32L0xx_HAL_Driver/Src/stm32l0xx_hal_i2c.c ****         (++) HAL_I2C_SlaveRxCpltCallback()
1093:Drivers/STM32L0xx_HAL_Driver/Src/stm32l0xx_hal_i2c.c ****         (++) HAL_I2C_MemTxCpltCallback()
1094:Drivers/STM32L0xx_HAL_Driver/Src/stm32l0xx_hal_i2c.c ****         (++) HAL_I2C_MemRxCpltCallback()
1095:Drivers/STM32L0xx_HAL_Driver/Src/stm32l0xx_hal_i2c.c ****         (++) HAL_I2C_AddrCallback()
1096:Drivers/STM32L0xx_HAL_Driver/Src/stm32l0xx_hal_i2c.c ****         (++) HAL_I2C_ListenCpltCallback()
1097:Drivers/STM32L0xx_HAL_Driver/Src/stm32l0xx_hal_i2c.c ****         (++) HAL_I2C_ErrorCallback()
1098:Drivers/STM32L0xx_HAL_Driver/Src/stm32l0xx_hal_i2c.c ****         (++) HAL_I2C_AbortCpltCallback()
1099:Drivers/STM32L0xx_HAL_Driver/Src/stm32l0xx_hal_i2c.c **** 
1100:Drivers/STM32L0xx_HAL_Driver/Src/stm32l0xx_hal_i2c.c **** @endverbatim
1101:Drivers/STM32L0xx_HAL_Driver/Src/stm32l0xx_hal_i2c.c ****   * @{
1102:Drivers/STM32L0xx_HAL_Driver/Src/stm32l0xx_hal_i2c.c ****   */
1103:Drivers/STM32L0xx_HAL_Driver/Src/stm32l0xx_hal_i2c.c **** 
1104:Drivers/STM32L0xx_HAL_Driver/Src/stm32l0xx_hal_i2c.c **** /**
1105:Drivers/STM32L0xx_HAL_Driver/Src/stm32l0xx_hal_i2c.c ****   * @brief  Transmits in master mode an amount of data in blocking mode.
1106:Drivers/STM32L0xx_HAL_Driver/Src/stm32l0xx_hal_i2c.c ****   * @param  hi2c Pointer to a I2C_HandleTypeDef structure that contains
1107:Drivers/STM32L0xx_HAL_Driver/Src/stm32l0xx_hal_i2c.c ****   *                the configuration information for the specified I2C.
1108:Drivers/STM32L0xx_HAL_Driver/Src/stm32l0xx_hal_i2c.c ****   * @param  DevAddress Target device address: The device 7 bits address value
1109:Drivers/STM32L0xx_HAL_Driver/Src/stm32l0xx_hal_i2c.c ****   *         in datasheet must be shifted to the left before calling the interface
1110:Drivers/STM32L0xx_HAL_Driver/Src/stm32l0xx_hal_i2c.c ****   * @param  pData Pointer to data buffer
1111:Drivers/STM32L0xx_HAL_Driver/Src/stm32l0xx_hal_i2c.c ****   * @param  Size Amount of data to be sent
1112:Drivers/STM32L0xx_HAL_Driver/Src/stm32l0xx_hal_i2c.c ****   * @param  Timeout Timeout duration
1113:Drivers/STM32L0xx_HAL_Driver/Src/stm32l0xx_hal_i2c.c ****   * @retval HAL status
1114:Drivers/STM32L0xx_HAL_Driver/Src/stm32l0xx_hal_i2c.c ****   */
1115:Drivers/STM32L0xx_HAL_Driver/Src/stm32l0xx_hal_i2c.c **** HAL_StatusTypeDef HAL_I2C_Master_Transmit(I2C_HandleTypeDef *hi2c, uint16_t DevAddress, uint8_t *pD
1116:Drivers/STM32L0xx_HAL_Driver/Src/stm32l0xx_hal_i2c.c ****                                           uint16_t Size, uint32_t Timeout)
1117:Drivers/STM32L0xx_HAL_Driver/Src/stm32l0xx_hal_i2c.c **** {
 423              		.loc 1 1117 1
 424              		.cfi_startproc
 425              		@ args = 4, pretend = 0, frame = 24
 426              		@ frame_needed = 1, uses_anonymous_args = 0
 427 0000 90B5     		push	{r4, r7, lr}
 428              	.LCFI12:
ARM GAS  /var/folders/fs/dxwfnrqj18z860lwl3d6f5t00000gn/T//cc1liz9x.s 			page 28


 429              		.cfi_def_cfa_offset 12
 430              		.cfi_offset 4, -12
 431              		.cfi_offset 7, -8
 432              		.cfi_offset 14, -4
 433 0002 89B0     		sub	sp, sp, #36
 434              	.LCFI13:
 435              		.cfi_def_cfa_offset 48
 436 0004 02AF     		add	r7, sp, #8
 437              	.LCFI14:
 438              		.cfi_def_cfa 7, 40
 439 0006 F860     		str	r0, [r7, #12]
 440 0008 0800     		movs	r0, r1
 441 000a 7A60     		str	r2, [r7, #4]
 442 000c 1900     		movs	r1, r3
 443 000e 0A23     		movs	r3, #10
 444 0010 FB18     		adds	r3, r7, r3
 445 0012 021C     		adds	r2, r0, #0
 446 0014 1A80     		strh	r2, [r3]
 447 0016 0823     		movs	r3, #8
 448 0018 FB18     		adds	r3, r7, r3
 449 001a 0A1C     		adds	r2, r1, #0
 450 001c 1A80     		strh	r2, [r3]
1118:Drivers/STM32L0xx_HAL_Driver/Src/stm32l0xx_hal_i2c.c ****   uint32_t tickstart;
1119:Drivers/STM32L0xx_HAL_Driver/Src/stm32l0xx_hal_i2c.c **** 
1120:Drivers/STM32L0xx_HAL_Driver/Src/stm32l0xx_hal_i2c.c ****   if (hi2c->State == HAL_I2C_STATE_READY)
 451              		.loc 1 1120 11
 452 001e FB68     		ldr	r3, [r7, #12]
 453 0020 4122     		movs	r2, #65
 454 0022 9B5C     		ldrb	r3, [r3, r2]
 455 0024 DBB2     		uxtb	r3, r3
 456              		.loc 1 1120 6
 457 0026 202B     		cmp	r3, #32
 458 0028 00D0     		beq	.LCB342
 459 002a E7E0     		b	.L16	@long jump
 460              	.LCB342:
1121:Drivers/STM32L0xx_HAL_Driver/Src/stm32l0xx_hal_i2c.c ****   {
1122:Drivers/STM32L0xx_HAL_Driver/Src/stm32l0xx_hal_i2c.c ****     /* Process Locked */
1123:Drivers/STM32L0xx_HAL_Driver/Src/stm32l0xx_hal_i2c.c ****     __HAL_LOCK(hi2c);
 461              		.loc 1 1123 5
 462 002c FB68     		ldr	r3, [r7, #12]
 463 002e 4022     		movs	r2, #64
 464 0030 9B5C     		ldrb	r3, [r3, r2]
 465 0032 012B     		cmp	r3, #1
 466 0034 01D1     		bne	.L17
 467              		.loc 1 1123 5 is_stmt 0 discriminator 1
 468 0036 0223     		movs	r3, #2
 469 0038 E1E0     		b	.L18
 470              	.L17:
 471              		.loc 1 1123 5 discriminator 2
 472 003a FB68     		ldr	r3, [r7, #12]
 473 003c 4022     		movs	r2, #64
 474 003e 0121     		movs	r1, #1
 475 0040 9954     		strb	r1, [r3, r2]
1124:Drivers/STM32L0xx_HAL_Driver/Src/stm32l0xx_hal_i2c.c **** 
1125:Drivers/STM32L0xx_HAL_Driver/Src/stm32l0xx_hal_i2c.c ****     /* Init tickstart for timeout management*/
1126:Drivers/STM32L0xx_HAL_Driver/Src/stm32l0xx_hal_i2c.c ****     tickstart = HAL_GetTick();
 476              		.loc 1 1126 17 is_stmt 1 discriminator 2
ARM GAS  /var/folders/fs/dxwfnrqj18z860lwl3d6f5t00000gn/T//cc1liz9x.s 			page 29


 477 0042 FFF7FEFF 		bl	HAL_GetTick
 478 0046 0300     		movs	r3, r0
 479 0048 7B61     		str	r3, [r7, #20]
1127:Drivers/STM32L0xx_HAL_Driver/Src/stm32l0xx_hal_i2c.c **** 
1128:Drivers/STM32L0xx_HAL_Driver/Src/stm32l0xx_hal_i2c.c ****     if (I2C_WaitOnFlagUntilTimeout(hi2c, I2C_FLAG_BUSY, SET, I2C_TIMEOUT_BUSY, tickstart) != HAL_OK
 480              		.loc 1 1128 9 discriminator 2
 481 004a 8023     		movs	r3, #128
 482 004c 1902     		lsls	r1, r3, #8
 483 004e F868     		ldr	r0, [r7, #12]
 484 0050 7B69     		ldr	r3, [r7, #20]
 485 0052 0093     		str	r3, [sp]
 486 0054 1923     		movs	r3, #25
 487 0056 0122     		movs	r2, #1
 488 0058 FFF7FEFF 		bl	I2C_WaitOnFlagUntilTimeout
 489 005c 031E     		subs	r3, r0, #0
 490              		.loc 1 1128 8 discriminator 2
 491 005e 01D0     		beq	.L19
1129:Drivers/STM32L0xx_HAL_Driver/Src/stm32l0xx_hal_i2c.c ****     {
1130:Drivers/STM32L0xx_HAL_Driver/Src/stm32l0xx_hal_i2c.c ****       return HAL_ERROR;
 492              		.loc 1 1130 14
 493 0060 0123     		movs	r3, #1
 494 0062 CCE0     		b	.L18
 495              	.L19:
1131:Drivers/STM32L0xx_HAL_Driver/Src/stm32l0xx_hal_i2c.c ****     }
1132:Drivers/STM32L0xx_HAL_Driver/Src/stm32l0xx_hal_i2c.c **** 
1133:Drivers/STM32L0xx_HAL_Driver/Src/stm32l0xx_hal_i2c.c ****     hi2c->State     = HAL_I2C_STATE_BUSY_TX;
 496              		.loc 1 1133 21
 497 0064 FB68     		ldr	r3, [r7, #12]
 498 0066 4122     		movs	r2, #65
 499 0068 2121     		movs	r1, #33
 500 006a 9954     		strb	r1, [r3, r2]
1134:Drivers/STM32L0xx_HAL_Driver/Src/stm32l0xx_hal_i2c.c ****     hi2c->Mode      = HAL_I2C_MODE_MASTER;
 501              		.loc 1 1134 21
 502 006c FB68     		ldr	r3, [r7, #12]
 503 006e 4222     		movs	r2, #66
 504 0070 1021     		movs	r1, #16
 505 0072 9954     		strb	r1, [r3, r2]
1135:Drivers/STM32L0xx_HAL_Driver/Src/stm32l0xx_hal_i2c.c ****     hi2c->ErrorCode = HAL_I2C_ERROR_NONE;
 506              		.loc 1 1135 21
 507 0074 FB68     		ldr	r3, [r7, #12]
 508 0076 0022     		movs	r2, #0
 509 0078 5A64     		str	r2, [r3, #68]
1136:Drivers/STM32L0xx_HAL_Driver/Src/stm32l0xx_hal_i2c.c **** 
1137:Drivers/STM32L0xx_HAL_Driver/Src/stm32l0xx_hal_i2c.c ****     /* Prepare transfer parameters */
1138:Drivers/STM32L0xx_HAL_Driver/Src/stm32l0xx_hal_i2c.c ****     hi2c->pBuffPtr  = pData;
 510              		.loc 1 1138 21
 511 007a FB68     		ldr	r3, [r7, #12]
 512 007c 7A68     		ldr	r2, [r7, #4]
 513 007e 5A62     		str	r2, [r3, #36]
1139:Drivers/STM32L0xx_HAL_Driver/Src/stm32l0xx_hal_i2c.c ****     hi2c->XferCount = Size;
 514              		.loc 1 1139 21
 515 0080 FB68     		ldr	r3, [r7, #12]
 516 0082 0822     		movs	r2, #8
 517 0084 BA18     		adds	r2, r7, r2
 518 0086 1288     		ldrh	r2, [r2]
 519 0088 5A85     		strh	r2, [r3, #42]
1140:Drivers/STM32L0xx_HAL_Driver/Src/stm32l0xx_hal_i2c.c ****     hi2c->XferISR   = NULL;
ARM GAS  /var/folders/fs/dxwfnrqj18z860lwl3d6f5t00000gn/T//cc1liz9x.s 			page 30


 520              		.loc 1 1140 21
 521 008a FB68     		ldr	r3, [r7, #12]
 522 008c 0022     		movs	r2, #0
 523 008e 5A63     		str	r2, [r3, #52]
1141:Drivers/STM32L0xx_HAL_Driver/Src/stm32l0xx_hal_i2c.c **** 
1142:Drivers/STM32L0xx_HAL_Driver/Src/stm32l0xx_hal_i2c.c ****     /* Send Slave Address */
1143:Drivers/STM32L0xx_HAL_Driver/Src/stm32l0xx_hal_i2c.c ****     /* Set NBYTES to write and reload if hi2c->XferCount > MAX_NBYTE_SIZE and generate RESTART */
1144:Drivers/STM32L0xx_HAL_Driver/Src/stm32l0xx_hal_i2c.c ****     if (hi2c->XferCount > MAX_NBYTE_SIZE)
 524              		.loc 1 1144 13
 525 0090 FB68     		ldr	r3, [r7, #12]
 526 0092 5B8D     		ldrh	r3, [r3, #42]
 527 0094 9BB2     		uxth	r3, r3
 528              		.loc 1 1144 8
 529 0096 FF2B     		cmp	r3, #255
 530 0098 11D9     		bls	.L20
1145:Drivers/STM32L0xx_HAL_Driver/Src/stm32l0xx_hal_i2c.c ****     {
1146:Drivers/STM32L0xx_HAL_Driver/Src/stm32l0xx_hal_i2c.c ****       hi2c->XferSize = MAX_NBYTE_SIZE;
 531              		.loc 1 1146 22
 532 009a FB68     		ldr	r3, [r7, #12]
 533 009c FF22     		movs	r2, #255
 534 009e 1A85     		strh	r2, [r3, #40]
1147:Drivers/STM32L0xx_HAL_Driver/Src/stm32l0xx_hal_i2c.c ****       I2C_TransferConfig(hi2c, DevAddress, (uint8_t)hi2c->XferSize, I2C_RELOAD_MODE,
 535              		.loc 1 1147 57
 536 00a0 FB68     		ldr	r3, [r7, #12]
 537 00a2 1B8D     		ldrh	r3, [r3, #40]
 538              		.loc 1 1147 7
 539 00a4 DAB2     		uxtb	r2, r3
 540 00a6 8023     		movs	r3, #128
 541 00a8 5C04     		lsls	r4, r3, #17
 542 00aa 0A23     		movs	r3, #10
 543 00ac FB18     		adds	r3, r7, r3
 544 00ae 1988     		ldrh	r1, [r3]
 545 00b0 F868     		ldr	r0, [r7, #12]
 546 00b2 554B     		ldr	r3, .L28
 547 00b4 0093     		str	r3, [sp]
 548 00b6 2300     		movs	r3, r4
 549 00b8 FFF7FEFF 		bl	I2C_TransferConfig
 550 00bc 75E0     		b	.L22
 551              	.L20:
1148:Drivers/STM32L0xx_HAL_Driver/Src/stm32l0xx_hal_i2c.c ****                          I2C_GENERATE_START_WRITE);
1149:Drivers/STM32L0xx_HAL_Driver/Src/stm32l0xx_hal_i2c.c ****     }
1150:Drivers/STM32L0xx_HAL_Driver/Src/stm32l0xx_hal_i2c.c ****     else
1151:Drivers/STM32L0xx_HAL_Driver/Src/stm32l0xx_hal_i2c.c ****     {
1152:Drivers/STM32L0xx_HAL_Driver/Src/stm32l0xx_hal_i2c.c ****       hi2c->XferSize = hi2c->XferCount;
 552              		.loc 1 1152 28
 553 00be FB68     		ldr	r3, [r7, #12]
 554 00c0 5B8D     		ldrh	r3, [r3, #42]
 555 00c2 9AB2     		uxth	r2, r3
 556              		.loc 1 1152 22
 557 00c4 FB68     		ldr	r3, [r7, #12]
 558 00c6 1A85     		strh	r2, [r3, #40]
1153:Drivers/STM32L0xx_HAL_Driver/Src/stm32l0xx_hal_i2c.c ****       I2C_TransferConfig(hi2c, DevAddress, (uint8_t)hi2c->XferSize, I2C_AUTOEND_MODE,
 559              		.loc 1 1153 57
 560 00c8 FB68     		ldr	r3, [r7, #12]
 561 00ca 1B8D     		ldrh	r3, [r3, #40]
 562              		.loc 1 1153 7
 563 00cc DAB2     		uxtb	r2, r3
ARM GAS  /var/folders/fs/dxwfnrqj18z860lwl3d6f5t00000gn/T//cc1liz9x.s 			page 31


 564 00ce 8023     		movs	r3, #128
 565 00d0 9C04     		lsls	r4, r3, #18
 566 00d2 0A23     		movs	r3, #10
 567 00d4 FB18     		adds	r3, r7, r3
 568 00d6 1988     		ldrh	r1, [r3]
 569 00d8 F868     		ldr	r0, [r7, #12]
 570 00da 4B4B     		ldr	r3, .L28
 571 00dc 0093     		str	r3, [sp]
 572 00de 2300     		movs	r3, r4
 573 00e0 FFF7FEFF 		bl	I2C_TransferConfig
1154:Drivers/STM32L0xx_HAL_Driver/Src/stm32l0xx_hal_i2c.c ****                          I2C_GENERATE_START_WRITE);
1155:Drivers/STM32L0xx_HAL_Driver/Src/stm32l0xx_hal_i2c.c ****     }
1156:Drivers/STM32L0xx_HAL_Driver/Src/stm32l0xx_hal_i2c.c **** 
1157:Drivers/STM32L0xx_HAL_Driver/Src/stm32l0xx_hal_i2c.c ****     while (hi2c->XferCount > 0U)
 574              		.loc 1 1157 11
 575 00e4 61E0     		b	.L22
 576              	.L26:
1158:Drivers/STM32L0xx_HAL_Driver/Src/stm32l0xx_hal_i2c.c ****     {
1159:Drivers/STM32L0xx_HAL_Driver/Src/stm32l0xx_hal_i2c.c ****       /* Wait until TXIS flag is set */
1160:Drivers/STM32L0xx_HAL_Driver/Src/stm32l0xx_hal_i2c.c ****       if (I2C_WaitOnTXISFlagUntilTimeout(hi2c, Timeout, tickstart) != HAL_OK)
 577              		.loc 1 1160 11
 578 00e6 7A69     		ldr	r2, [r7, #20]
 579 00e8 B96A     		ldr	r1, [r7, #40]
 580 00ea FB68     		ldr	r3, [r7, #12]
 581 00ec 1800     		movs	r0, r3
 582 00ee FFF7FEFF 		bl	I2C_WaitOnTXISFlagUntilTimeout
 583 00f2 031E     		subs	r3, r0, #0
 584              		.loc 1 1160 10
 585 00f4 01D0     		beq	.L23
1161:Drivers/STM32L0xx_HAL_Driver/Src/stm32l0xx_hal_i2c.c ****       {
1162:Drivers/STM32L0xx_HAL_Driver/Src/stm32l0xx_hal_i2c.c ****         return HAL_ERROR;
 586              		.loc 1 1162 16
 587 00f6 0123     		movs	r3, #1
 588 00f8 81E0     		b	.L18
 589              	.L23:
1163:Drivers/STM32L0xx_HAL_Driver/Src/stm32l0xx_hal_i2c.c ****       }
1164:Drivers/STM32L0xx_HAL_Driver/Src/stm32l0xx_hal_i2c.c ****       /* Write data to TXDR */
1165:Drivers/STM32L0xx_HAL_Driver/Src/stm32l0xx_hal_i2c.c ****       hi2c->Instance->TXDR = *hi2c->pBuffPtr;
 590              		.loc 1 1165 35
 591 00fa FB68     		ldr	r3, [r7, #12]
 592 00fc 5B6A     		ldr	r3, [r3, #36]
 593              		.loc 1 1165 30
 594 00fe 1A78     		ldrb	r2, [r3]
 595              		.loc 1 1165 11
 596 0100 FB68     		ldr	r3, [r7, #12]
 597 0102 1B68     		ldr	r3, [r3]
 598              		.loc 1 1165 28
 599 0104 9A62     		str	r2, [r3, #40]
1166:Drivers/STM32L0xx_HAL_Driver/Src/stm32l0xx_hal_i2c.c **** 
1167:Drivers/STM32L0xx_HAL_Driver/Src/stm32l0xx_hal_i2c.c ****       /* Increment Buffer pointer */
1168:Drivers/STM32L0xx_HAL_Driver/Src/stm32l0xx_hal_i2c.c ****       hi2c->pBuffPtr++;
 600              		.loc 1 1168 11
 601 0106 FB68     		ldr	r3, [r7, #12]
 602 0108 5B6A     		ldr	r3, [r3, #36]
 603              		.loc 1 1168 21
 604 010a 5A1C     		adds	r2, r3, #1
 605 010c FB68     		ldr	r3, [r7, #12]
ARM GAS  /var/folders/fs/dxwfnrqj18z860lwl3d6f5t00000gn/T//cc1liz9x.s 			page 32


 606 010e 5A62     		str	r2, [r3, #36]
1169:Drivers/STM32L0xx_HAL_Driver/Src/stm32l0xx_hal_i2c.c **** 
1170:Drivers/STM32L0xx_HAL_Driver/Src/stm32l0xx_hal_i2c.c ****       hi2c->XferCount--;
 607              		.loc 1 1170 11
 608 0110 FB68     		ldr	r3, [r7, #12]
 609 0112 5B8D     		ldrh	r3, [r3, #42]
 610 0114 9BB2     		uxth	r3, r3
 611              		.loc 1 1170 22
 612 0116 013B     		subs	r3, r3, #1
 613 0118 9AB2     		uxth	r2, r3
 614 011a FB68     		ldr	r3, [r7, #12]
 615 011c 5A85     		strh	r2, [r3, #42]
1171:Drivers/STM32L0xx_HAL_Driver/Src/stm32l0xx_hal_i2c.c ****       hi2c->XferSize--;
 616              		.loc 1 1171 11
 617 011e FB68     		ldr	r3, [r7, #12]
 618 0120 1B8D     		ldrh	r3, [r3, #40]
 619              		.loc 1 1171 21
 620 0122 013B     		subs	r3, r3, #1
 621 0124 9AB2     		uxth	r2, r3
 622 0126 FB68     		ldr	r3, [r7, #12]
 623 0128 1A85     		strh	r2, [r3, #40]
1172:Drivers/STM32L0xx_HAL_Driver/Src/stm32l0xx_hal_i2c.c **** 
1173:Drivers/STM32L0xx_HAL_Driver/Src/stm32l0xx_hal_i2c.c ****       if ((hi2c->XferCount != 0U) && (hi2c->XferSize == 0U))
 624              		.loc 1 1173 16
 625 012a FB68     		ldr	r3, [r7, #12]
 626 012c 5B8D     		ldrh	r3, [r3, #42]
 627 012e 9BB2     		uxth	r3, r3
 628              		.loc 1 1173 10
 629 0130 002B     		cmp	r3, #0
 630 0132 3AD0     		beq	.L22
 631              		.loc 1 1173 43 discriminator 1
 632 0134 FB68     		ldr	r3, [r7, #12]
 633 0136 1B8D     		ldrh	r3, [r3, #40]
 634              		.loc 1 1173 35 discriminator 1
 635 0138 002B     		cmp	r3, #0
 636 013a 36D1     		bne	.L22
1174:Drivers/STM32L0xx_HAL_Driver/Src/stm32l0xx_hal_i2c.c ****       {
1175:Drivers/STM32L0xx_HAL_Driver/Src/stm32l0xx_hal_i2c.c ****         /* Wait until TCR flag is set */
1176:Drivers/STM32L0xx_HAL_Driver/Src/stm32l0xx_hal_i2c.c ****         if (I2C_WaitOnFlagUntilTimeout(hi2c, I2C_FLAG_TCR, RESET, Timeout, tickstart) != HAL_OK)
 637              		.loc 1 1176 13
 638 013c BA6A     		ldr	r2, [r7, #40]
 639 013e F868     		ldr	r0, [r7, #12]
 640 0140 7B69     		ldr	r3, [r7, #20]
 641 0142 0093     		str	r3, [sp]
 642 0144 1300     		movs	r3, r2
 643 0146 0022     		movs	r2, #0
 644 0148 8021     		movs	r1, #128
 645 014a FFF7FEFF 		bl	I2C_WaitOnFlagUntilTimeout
 646 014e 031E     		subs	r3, r0, #0
 647              		.loc 1 1176 12
 648 0150 01D0     		beq	.L24
1177:Drivers/STM32L0xx_HAL_Driver/Src/stm32l0xx_hal_i2c.c ****         {
1178:Drivers/STM32L0xx_HAL_Driver/Src/stm32l0xx_hal_i2c.c ****           return HAL_ERROR;
 649              		.loc 1 1178 18
 650 0152 0123     		movs	r3, #1
 651 0154 53E0     		b	.L18
 652              	.L24:
ARM GAS  /var/folders/fs/dxwfnrqj18z860lwl3d6f5t00000gn/T//cc1liz9x.s 			page 33


1179:Drivers/STM32L0xx_HAL_Driver/Src/stm32l0xx_hal_i2c.c ****         }
1180:Drivers/STM32L0xx_HAL_Driver/Src/stm32l0xx_hal_i2c.c **** 
1181:Drivers/STM32L0xx_HAL_Driver/Src/stm32l0xx_hal_i2c.c ****         if (hi2c->XferCount > MAX_NBYTE_SIZE)
 653              		.loc 1 1181 17
 654 0156 FB68     		ldr	r3, [r7, #12]
 655 0158 5B8D     		ldrh	r3, [r3, #42]
 656 015a 9BB2     		uxth	r3, r3
 657              		.loc 1 1181 12
 658 015c FF2B     		cmp	r3, #255
 659 015e 11D9     		bls	.L25
1182:Drivers/STM32L0xx_HAL_Driver/Src/stm32l0xx_hal_i2c.c ****         {
1183:Drivers/STM32L0xx_HAL_Driver/Src/stm32l0xx_hal_i2c.c ****           hi2c->XferSize = MAX_NBYTE_SIZE;
 660              		.loc 1 1183 26
 661 0160 FB68     		ldr	r3, [r7, #12]
 662 0162 FF22     		movs	r2, #255
 663 0164 1A85     		strh	r2, [r3, #40]
1184:Drivers/STM32L0xx_HAL_Driver/Src/stm32l0xx_hal_i2c.c ****           I2C_TransferConfig(hi2c, DevAddress, (uint8_t)hi2c->XferSize, I2C_RELOAD_MODE,
 664              		.loc 1 1184 61
 665 0166 FB68     		ldr	r3, [r7, #12]
 666 0168 1B8D     		ldrh	r3, [r3, #40]
 667              		.loc 1 1184 11
 668 016a DAB2     		uxtb	r2, r3
 669 016c 8023     		movs	r3, #128
 670 016e 5C04     		lsls	r4, r3, #17
 671 0170 0A23     		movs	r3, #10
 672 0172 FB18     		adds	r3, r7, r3
 673 0174 1988     		ldrh	r1, [r3]
 674 0176 F868     		ldr	r0, [r7, #12]
 675 0178 0023     		movs	r3, #0
 676 017a 0093     		str	r3, [sp]
 677 017c 2300     		movs	r3, r4
 678 017e FFF7FEFF 		bl	I2C_TransferConfig
 679 0182 12E0     		b	.L22
 680              	.L25:
1185:Drivers/STM32L0xx_HAL_Driver/Src/stm32l0xx_hal_i2c.c ****                              I2C_NO_STARTSTOP);
1186:Drivers/STM32L0xx_HAL_Driver/Src/stm32l0xx_hal_i2c.c ****         }
1187:Drivers/STM32L0xx_HAL_Driver/Src/stm32l0xx_hal_i2c.c ****         else
1188:Drivers/STM32L0xx_HAL_Driver/Src/stm32l0xx_hal_i2c.c ****         {
1189:Drivers/STM32L0xx_HAL_Driver/Src/stm32l0xx_hal_i2c.c ****           hi2c->XferSize = hi2c->XferCount;
 681              		.loc 1 1189 32
 682 0184 FB68     		ldr	r3, [r7, #12]
 683 0186 5B8D     		ldrh	r3, [r3, #42]
 684 0188 9AB2     		uxth	r2, r3
 685              		.loc 1 1189 26
 686 018a FB68     		ldr	r3, [r7, #12]
 687 018c 1A85     		strh	r2, [r3, #40]
1190:Drivers/STM32L0xx_HAL_Driver/Src/stm32l0xx_hal_i2c.c ****           I2C_TransferConfig(hi2c, DevAddress, (uint8_t)hi2c->XferSize, I2C_AUTOEND_MODE,
 688              		.loc 1 1190 61
 689 018e FB68     		ldr	r3, [r7, #12]
 690 0190 1B8D     		ldrh	r3, [r3, #40]
 691              		.loc 1 1190 11
 692 0192 DAB2     		uxtb	r2, r3
 693 0194 8023     		movs	r3, #128
 694 0196 9C04     		lsls	r4, r3, #18
 695 0198 0A23     		movs	r3, #10
 696 019a FB18     		adds	r3, r7, r3
 697 019c 1988     		ldrh	r1, [r3]
ARM GAS  /var/folders/fs/dxwfnrqj18z860lwl3d6f5t00000gn/T//cc1liz9x.s 			page 34


 698 019e F868     		ldr	r0, [r7, #12]
 699 01a0 0023     		movs	r3, #0
 700 01a2 0093     		str	r3, [sp]
 701 01a4 2300     		movs	r3, r4
 702 01a6 FFF7FEFF 		bl	I2C_TransferConfig
 703              	.L22:
1157:Drivers/STM32L0xx_HAL_Driver/Src/stm32l0xx_hal_i2c.c ****     {
 704              		.loc 1 1157 16
 705 01aa FB68     		ldr	r3, [r7, #12]
 706 01ac 5B8D     		ldrh	r3, [r3, #42]
 707 01ae 9BB2     		uxth	r3, r3
1157:Drivers/STM32L0xx_HAL_Driver/Src/stm32l0xx_hal_i2c.c ****     {
 708              		.loc 1 1157 11
 709 01b0 002B     		cmp	r3, #0
 710 01b2 98D1     		bne	.L26
1191:Drivers/STM32L0xx_HAL_Driver/Src/stm32l0xx_hal_i2c.c ****                              I2C_NO_STARTSTOP);
1192:Drivers/STM32L0xx_HAL_Driver/Src/stm32l0xx_hal_i2c.c ****         }
1193:Drivers/STM32L0xx_HAL_Driver/Src/stm32l0xx_hal_i2c.c ****       }
1194:Drivers/STM32L0xx_HAL_Driver/Src/stm32l0xx_hal_i2c.c ****     }
1195:Drivers/STM32L0xx_HAL_Driver/Src/stm32l0xx_hal_i2c.c **** 
1196:Drivers/STM32L0xx_HAL_Driver/Src/stm32l0xx_hal_i2c.c ****     /* No need to Check TC flag, with AUTOEND mode the stop is automatically generated */
1197:Drivers/STM32L0xx_HAL_Driver/Src/stm32l0xx_hal_i2c.c ****     /* Wait until STOPF flag is set */
1198:Drivers/STM32L0xx_HAL_Driver/Src/stm32l0xx_hal_i2c.c ****     if (I2C_WaitOnSTOPFlagUntilTimeout(hi2c, Timeout, tickstart) != HAL_OK)
 711              		.loc 1 1198 9
 712 01b4 7A69     		ldr	r2, [r7, #20]
 713 01b6 B96A     		ldr	r1, [r7, #40]
 714 01b8 FB68     		ldr	r3, [r7, #12]
 715 01ba 1800     		movs	r0, r3
 716 01bc FFF7FEFF 		bl	I2C_WaitOnSTOPFlagUntilTimeout
 717 01c0 031E     		subs	r3, r0, #0
 718              		.loc 1 1198 8
 719 01c2 01D0     		beq	.L27
1199:Drivers/STM32L0xx_HAL_Driver/Src/stm32l0xx_hal_i2c.c ****     {
1200:Drivers/STM32L0xx_HAL_Driver/Src/stm32l0xx_hal_i2c.c ****       return HAL_ERROR;
 720              		.loc 1 1200 14
 721 01c4 0123     		movs	r3, #1
 722 01c6 1AE0     		b	.L18
 723              	.L27:
1201:Drivers/STM32L0xx_HAL_Driver/Src/stm32l0xx_hal_i2c.c ****     }
1202:Drivers/STM32L0xx_HAL_Driver/Src/stm32l0xx_hal_i2c.c **** 
1203:Drivers/STM32L0xx_HAL_Driver/Src/stm32l0xx_hal_i2c.c ****     /* Clear STOP Flag */
1204:Drivers/STM32L0xx_HAL_Driver/Src/stm32l0xx_hal_i2c.c ****     __HAL_I2C_CLEAR_FLAG(hi2c, I2C_FLAG_STOPF);
 724              		.loc 1 1204 5
 725 01c8 FB68     		ldr	r3, [r7, #12]
 726 01ca 1B68     		ldr	r3, [r3]
 727 01cc 2022     		movs	r2, #32
 728 01ce DA61     		str	r2, [r3, #28]
1205:Drivers/STM32L0xx_HAL_Driver/Src/stm32l0xx_hal_i2c.c **** 
1206:Drivers/STM32L0xx_HAL_Driver/Src/stm32l0xx_hal_i2c.c ****     /* Clear Configuration Register 2 */
1207:Drivers/STM32L0xx_HAL_Driver/Src/stm32l0xx_hal_i2c.c ****     I2C_RESET_CR2(hi2c);
 729              		.loc 1 1207 5
 730 01d0 FB68     		ldr	r3, [r7, #12]
 731 01d2 1B68     		ldr	r3, [r3]
 732 01d4 5A68     		ldr	r2, [r3, #4]
 733 01d6 FB68     		ldr	r3, [r7, #12]
 734 01d8 1B68     		ldr	r3, [r3]
 735 01da 0C49     		ldr	r1, .L28+4
ARM GAS  /var/folders/fs/dxwfnrqj18z860lwl3d6f5t00000gn/T//cc1liz9x.s 			page 35


 736 01dc 0A40     		ands	r2, r1
 737 01de 5A60     		str	r2, [r3, #4]
1208:Drivers/STM32L0xx_HAL_Driver/Src/stm32l0xx_hal_i2c.c **** 
1209:Drivers/STM32L0xx_HAL_Driver/Src/stm32l0xx_hal_i2c.c ****     hi2c->State = HAL_I2C_STATE_READY;
 738              		.loc 1 1209 17
 739 01e0 FB68     		ldr	r3, [r7, #12]
 740 01e2 4122     		movs	r2, #65
 741 01e4 2021     		movs	r1, #32
 742 01e6 9954     		strb	r1, [r3, r2]
1210:Drivers/STM32L0xx_HAL_Driver/Src/stm32l0xx_hal_i2c.c ****     hi2c->Mode  = HAL_I2C_MODE_NONE;
 743              		.loc 1 1210 17
 744 01e8 FB68     		ldr	r3, [r7, #12]
 745 01ea 4222     		movs	r2, #66
 746 01ec 0021     		movs	r1, #0
 747 01ee 9954     		strb	r1, [r3, r2]
1211:Drivers/STM32L0xx_HAL_Driver/Src/stm32l0xx_hal_i2c.c **** 
1212:Drivers/STM32L0xx_HAL_Driver/Src/stm32l0xx_hal_i2c.c ****     /* Process Unlocked */
1213:Drivers/STM32L0xx_HAL_Driver/Src/stm32l0xx_hal_i2c.c ****     __HAL_UNLOCK(hi2c);
 748              		.loc 1 1213 5
 749 01f0 FB68     		ldr	r3, [r7, #12]
 750 01f2 4022     		movs	r2, #64
 751 01f4 0021     		movs	r1, #0
 752 01f6 9954     		strb	r1, [r3, r2]
1214:Drivers/STM32L0xx_HAL_Driver/Src/stm32l0xx_hal_i2c.c **** 
1215:Drivers/STM32L0xx_HAL_Driver/Src/stm32l0xx_hal_i2c.c ****     return HAL_OK;
 753              		.loc 1 1215 12
 754 01f8 0023     		movs	r3, #0
 755 01fa 00E0     		b	.L18
 756              	.L16:
1216:Drivers/STM32L0xx_HAL_Driver/Src/stm32l0xx_hal_i2c.c ****   }
1217:Drivers/STM32L0xx_HAL_Driver/Src/stm32l0xx_hal_i2c.c ****   else
1218:Drivers/STM32L0xx_HAL_Driver/Src/stm32l0xx_hal_i2c.c ****   {
1219:Drivers/STM32L0xx_HAL_Driver/Src/stm32l0xx_hal_i2c.c ****     return HAL_BUSY;
 757              		.loc 1 1219 12
 758 01fc 0223     		movs	r3, #2
 759              	.L18:
1220:Drivers/STM32L0xx_HAL_Driver/Src/stm32l0xx_hal_i2c.c ****   }
1221:Drivers/STM32L0xx_HAL_Driver/Src/stm32l0xx_hal_i2c.c **** }
 760              		.loc 1 1221 1
 761 01fe 1800     		movs	r0, r3
 762 0200 BD46     		mov	sp, r7
 763 0202 07B0     		add	sp, sp, #28
 764              		@ sp needed
 765 0204 90BD     		pop	{r4, r7, pc}
 766              	.L29:
 767 0206 C046     		.align	2
 768              	.L28:
 769 0208 00200080 		.word	-2147475456
 770 020c 00E800FE 		.word	-33495040
 771              		.cfi_endproc
 772              	.LFE51:
 774              		.section	.text.HAL_I2C_Master_Receive,"ax",%progbits
 775              		.align	1
 776              		.global	HAL_I2C_Master_Receive
 777              		.syntax unified
 778              		.code	16
 779              		.thumb_func
ARM GAS  /var/folders/fs/dxwfnrqj18z860lwl3d6f5t00000gn/T//cc1liz9x.s 			page 36


 780              		.fpu softvfp
 782              	HAL_I2C_Master_Receive:
 783              	.LFB52:
1222:Drivers/STM32L0xx_HAL_Driver/Src/stm32l0xx_hal_i2c.c **** 
1223:Drivers/STM32L0xx_HAL_Driver/Src/stm32l0xx_hal_i2c.c **** /**
1224:Drivers/STM32L0xx_HAL_Driver/Src/stm32l0xx_hal_i2c.c ****   * @brief  Receives in master mode an amount of data in blocking mode.
1225:Drivers/STM32L0xx_HAL_Driver/Src/stm32l0xx_hal_i2c.c ****   * @param  hi2c Pointer to a I2C_HandleTypeDef structure that contains
1226:Drivers/STM32L0xx_HAL_Driver/Src/stm32l0xx_hal_i2c.c ****   *                the configuration information for the specified I2C.
1227:Drivers/STM32L0xx_HAL_Driver/Src/stm32l0xx_hal_i2c.c ****   * @param  DevAddress Target device address: The device 7 bits address value
1228:Drivers/STM32L0xx_HAL_Driver/Src/stm32l0xx_hal_i2c.c ****   *         in datasheet must be shifted to the left before calling the interface
1229:Drivers/STM32L0xx_HAL_Driver/Src/stm32l0xx_hal_i2c.c ****   * @param  pData Pointer to data buffer
1230:Drivers/STM32L0xx_HAL_Driver/Src/stm32l0xx_hal_i2c.c ****   * @param  Size Amount of data to be sent
1231:Drivers/STM32L0xx_HAL_Driver/Src/stm32l0xx_hal_i2c.c ****   * @param  Timeout Timeout duration
1232:Drivers/STM32L0xx_HAL_Driver/Src/stm32l0xx_hal_i2c.c ****   * @retval HAL status
1233:Drivers/STM32L0xx_HAL_Driver/Src/stm32l0xx_hal_i2c.c ****   */
1234:Drivers/STM32L0xx_HAL_Driver/Src/stm32l0xx_hal_i2c.c **** HAL_StatusTypeDef HAL_I2C_Master_Receive(I2C_HandleTypeDef *hi2c, uint16_t DevAddress, uint8_t *pDa
1235:Drivers/STM32L0xx_HAL_Driver/Src/stm32l0xx_hal_i2c.c ****                                          uint16_t Size, uint32_t Timeout)
1236:Drivers/STM32L0xx_HAL_Driver/Src/stm32l0xx_hal_i2c.c **** {
 784              		.loc 1 1236 1
 785              		.cfi_startproc
 786              		@ args = 4, pretend = 0, frame = 24
 787              		@ frame_needed = 1, uses_anonymous_args = 0
 788 0000 90B5     		push	{r4, r7, lr}
 789              	.LCFI15:
 790              		.cfi_def_cfa_offset 12
 791              		.cfi_offset 4, -12
 792              		.cfi_offset 7, -8
 793              		.cfi_offset 14, -4
 794 0002 89B0     		sub	sp, sp, #36
 795              	.LCFI16:
 796              		.cfi_def_cfa_offset 48
 797 0004 02AF     		add	r7, sp, #8
 798              	.LCFI17:
 799              		.cfi_def_cfa 7, 40
 800 0006 F860     		str	r0, [r7, #12]
 801 0008 0800     		movs	r0, r1
 802 000a 7A60     		str	r2, [r7, #4]
 803 000c 1900     		movs	r1, r3
 804 000e 0A23     		movs	r3, #10
 805 0010 FB18     		adds	r3, r7, r3
 806 0012 021C     		adds	r2, r0, #0
 807 0014 1A80     		strh	r2, [r3]
 808 0016 0823     		movs	r3, #8
 809 0018 FB18     		adds	r3, r7, r3
 810 001a 0A1C     		adds	r2, r1, #0
 811 001c 1A80     		strh	r2, [r3]
1237:Drivers/STM32L0xx_HAL_Driver/Src/stm32l0xx_hal_i2c.c ****   uint32_t tickstart;
1238:Drivers/STM32L0xx_HAL_Driver/Src/stm32l0xx_hal_i2c.c **** 
1239:Drivers/STM32L0xx_HAL_Driver/Src/stm32l0xx_hal_i2c.c ****   if (hi2c->State == HAL_I2C_STATE_READY)
 812              		.loc 1 1239 11
 813 001e FB68     		ldr	r3, [r7, #12]
 814 0020 4122     		movs	r2, #65
 815 0022 9B5C     		ldrb	r3, [r3, r2]
 816 0024 DBB2     		uxtb	r3, r3
 817              		.loc 1 1239 6
 818 0026 202B     		cmp	r3, #32
 819 0028 00D0     		beq	.LCB654
ARM GAS  /var/folders/fs/dxwfnrqj18z860lwl3d6f5t00000gn/T//cc1liz9x.s 			page 37


 820 002a E8E0     		b	.L31	@long jump
 821              	.LCB654:
1240:Drivers/STM32L0xx_HAL_Driver/Src/stm32l0xx_hal_i2c.c ****   {
1241:Drivers/STM32L0xx_HAL_Driver/Src/stm32l0xx_hal_i2c.c ****     /* Process Locked */
1242:Drivers/STM32L0xx_HAL_Driver/Src/stm32l0xx_hal_i2c.c ****     __HAL_LOCK(hi2c);
 822              		.loc 1 1242 5
 823 002c FB68     		ldr	r3, [r7, #12]
 824 002e 4022     		movs	r2, #64
 825 0030 9B5C     		ldrb	r3, [r3, r2]
 826 0032 012B     		cmp	r3, #1
 827 0034 01D1     		bne	.L32
 828              		.loc 1 1242 5 is_stmt 0 discriminator 1
 829 0036 0223     		movs	r3, #2
 830 0038 E2E0     		b	.L33
 831              	.L32:
 832              		.loc 1 1242 5 discriminator 2
 833 003a FB68     		ldr	r3, [r7, #12]
 834 003c 4022     		movs	r2, #64
 835 003e 0121     		movs	r1, #1
 836 0040 9954     		strb	r1, [r3, r2]
1243:Drivers/STM32L0xx_HAL_Driver/Src/stm32l0xx_hal_i2c.c **** 
1244:Drivers/STM32L0xx_HAL_Driver/Src/stm32l0xx_hal_i2c.c ****     /* Init tickstart for timeout management*/
1245:Drivers/STM32L0xx_HAL_Driver/Src/stm32l0xx_hal_i2c.c ****     tickstart = HAL_GetTick();
 837              		.loc 1 1245 17 is_stmt 1 discriminator 2
 838 0042 FFF7FEFF 		bl	HAL_GetTick
 839 0046 0300     		movs	r3, r0
 840 0048 7B61     		str	r3, [r7, #20]
1246:Drivers/STM32L0xx_HAL_Driver/Src/stm32l0xx_hal_i2c.c **** 
1247:Drivers/STM32L0xx_HAL_Driver/Src/stm32l0xx_hal_i2c.c ****     if (I2C_WaitOnFlagUntilTimeout(hi2c, I2C_FLAG_BUSY, SET, I2C_TIMEOUT_BUSY, tickstart) != HAL_OK
 841              		.loc 1 1247 9 discriminator 2
 842 004a 8023     		movs	r3, #128
 843 004c 1902     		lsls	r1, r3, #8
 844 004e F868     		ldr	r0, [r7, #12]
 845 0050 7B69     		ldr	r3, [r7, #20]
 846 0052 0093     		str	r3, [sp]
 847 0054 1923     		movs	r3, #25
 848 0056 0122     		movs	r2, #1
 849 0058 FFF7FEFF 		bl	I2C_WaitOnFlagUntilTimeout
 850 005c 031E     		subs	r3, r0, #0
 851              		.loc 1 1247 8 discriminator 2
 852 005e 01D0     		beq	.L34
1248:Drivers/STM32L0xx_HAL_Driver/Src/stm32l0xx_hal_i2c.c ****     {
1249:Drivers/STM32L0xx_HAL_Driver/Src/stm32l0xx_hal_i2c.c ****       return HAL_ERROR;
 853              		.loc 1 1249 14
 854 0060 0123     		movs	r3, #1
 855 0062 CDE0     		b	.L33
 856              	.L34:
1250:Drivers/STM32L0xx_HAL_Driver/Src/stm32l0xx_hal_i2c.c ****     }
1251:Drivers/STM32L0xx_HAL_Driver/Src/stm32l0xx_hal_i2c.c **** 
1252:Drivers/STM32L0xx_HAL_Driver/Src/stm32l0xx_hal_i2c.c ****     hi2c->State     = HAL_I2C_STATE_BUSY_RX;
 857              		.loc 1 1252 21
 858 0064 FB68     		ldr	r3, [r7, #12]
 859 0066 4122     		movs	r2, #65
 860 0068 2221     		movs	r1, #34
 861 006a 9954     		strb	r1, [r3, r2]
1253:Drivers/STM32L0xx_HAL_Driver/Src/stm32l0xx_hal_i2c.c ****     hi2c->Mode      = HAL_I2C_MODE_MASTER;
 862              		.loc 1 1253 21
ARM GAS  /var/folders/fs/dxwfnrqj18z860lwl3d6f5t00000gn/T//cc1liz9x.s 			page 38


 863 006c FB68     		ldr	r3, [r7, #12]
 864 006e 4222     		movs	r2, #66
 865 0070 1021     		movs	r1, #16
 866 0072 9954     		strb	r1, [r3, r2]
1254:Drivers/STM32L0xx_HAL_Driver/Src/stm32l0xx_hal_i2c.c ****     hi2c->ErrorCode = HAL_I2C_ERROR_NONE;
 867              		.loc 1 1254 21
 868 0074 FB68     		ldr	r3, [r7, #12]
 869 0076 0022     		movs	r2, #0
 870 0078 5A64     		str	r2, [r3, #68]
1255:Drivers/STM32L0xx_HAL_Driver/Src/stm32l0xx_hal_i2c.c **** 
1256:Drivers/STM32L0xx_HAL_Driver/Src/stm32l0xx_hal_i2c.c ****     /* Prepare transfer parameters */
1257:Drivers/STM32L0xx_HAL_Driver/Src/stm32l0xx_hal_i2c.c ****     hi2c->pBuffPtr  = pData;
 871              		.loc 1 1257 21
 872 007a FB68     		ldr	r3, [r7, #12]
 873 007c 7A68     		ldr	r2, [r7, #4]
 874 007e 5A62     		str	r2, [r3, #36]
1258:Drivers/STM32L0xx_HAL_Driver/Src/stm32l0xx_hal_i2c.c ****     hi2c->XferCount = Size;
 875              		.loc 1 1258 21
 876 0080 FB68     		ldr	r3, [r7, #12]
 877 0082 0822     		movs	r2, #8
 878 0084 BA18     		adds	r2, r7, r2
 879 0086 1288     		ldrh	r2, [r2]
 880 0088 5A85     		strh	r2, [r3, #42]
1259:Drivers/STM32L0xx_HAL_Driver/Src/stm32l0xx_hal_i2c.c ****     hi2c->XferISR   = NULL;
 881              		.loc 1 1259 21
 882 008a FB68     		ldr	r3, [r7, #12]
 883 008c 0022     		movs	r2, #0
 884 008e 5A63     		str	r2, [r3, #52]
1260:Drivers/STM32L0xx_HAL_Driver/Src/stm32l0xx_hal_i2c.c **** 
1261:Drivers/STM32L0xx_HAL_Driver/Src/stm32l0xx_hal_i2c.c ****     /* Send Slave Address */
1262:Drivers/STM32L0xx_HAL_Driver/Src/stm32l0xx_hal_i2c.c ****     /* Set NBYTES to write and reload if hi2c->XferCount > MAX_NBYTE_SIZE and generate RESTART */
1263:Drivers/STM32L0xx_HAL_Driver/Src/stm32l0xx_hal_i2c.c ****     if (hi2c->XferCount > MAX_NBYTE_SIZE)
 885              		.loc 1 1263 13
 886 0090 FB68     		ldr	r3, [r7, #12]
 887 0092 5B8D     		ldrh	r3, [r3, #42]
 888 0094 9BB2     		uxth	r3, r3
 889              		.loc 1 1263 8
 890 0096 FF2B     		cmp	r3, #255
 891 0098 11D9     		bls	.L35
1264:Drivers/STM32L0xx_HAL_Driver/Src/stm32l0xx_hal_i2c.c ****     {
1265:Drivers/STM32L0xx_HAL_Driver/Src/stm32l0xx_hal_i2c.c ****       hi2c->XferSize = MAX_NBYTE_SIZE;
 892              		.loc 1 1265 22
 893 009a FB68     		ldr	r3, [r7, #12]
 894 009c FF22     		movs	r2, #255
 895 009e 1A85     		strh	r2, [r3, #40]
1266:Drivers/STM32L0xx_HAL_Driver/Src/stm32l0xx_hal_i2c.c ****       I2C_TransferConfig(hi2c, DevAddress, (uint8_t)hi2c->XferSize, I2C_RELOAD_MODE,
 896              		.loc 1 1266 57
 897 00a0 FB68     		ldr	r3, [r7, #12]
 898 00a2 1B8D     		ldrh	r3, [r3, #40]
 899              		.loc 1 1266 7
 900 00a4 DAB2     		uxtb	r2, r3
 901 00a6 8023     		movs	r3, #128
 902 00a8 5C04     		lsls	r4, r3, #17
 903 00aa 0A23     		movs	r3, #10
 904 00ac FB18     		adds	r3, r7, r3
 905 00ae 1988     		ldrh	r1, [r3]
 906 00b0 F868     		ldr	r0, [r7, #12]
ARM GAS  /var/folders/fs/dxwfnrqj18z860lwl3d6f5t00000gn/T//cc1liz9x.s 			page 39


 907 00b2 554B     		ldr	r3, .L43
 908 00b4 0093     		str	r3, [sp]
 909 00b6 2300     		movs	r3, r4
 910 00b8 FFF7FEFF 		bl	I2C_TransferConfig
 911 00bc 76E0     		b	.L37
 912              	.L35:
1267:Drivers/STM32L0xx_HAL_Driver/Src/stm32l0xx_hal_i2c.c ****                          I2C_GENERATE_START_READ);
1268:Drivers/STM32L0xx_HAL_Driver/Src/stm32l0xx_hal_i2c.c ****     }
1269:Drivers/STM32L0xx_HAL_Driver/Src/stm32l0xx_hal_i2c.c ****     else
1270:Drivers/STM32L0xx_HAL_Driver/Src/stm32l0xx_hal_i2c.c ****     {
1271:Drivers/STM32L0xx_HAL_Driver/Src/stm32l0xx_hal_i2c.c ****       hi2c->XferSize = hi2c->XferCount;
 913              		.loc 1 1271 28
 914 00be FB68     		ldr	r3, [r7, #12]
 915 00c0 5B8D     		ldrh	r3, [r3, #42]
 916 00c2 9AB2     		uxth	r2, r3
 917              		.loc 1 1271 22
 918 00c4 FB68     		ldr	r3, [r7, #12]
 919 00c6 1A85     		strh	r2, [r3, #40]
1272:Drivers/STM32L0xx_HAL_Driver/Src/stm32l0xx_hal_i2c.c ****       I2C_TransferConfig(hi2c, DevAddress, (uint8_t)hi2c->XferSize, I2C_AUTOEND_MODE,
 920              		.loc 1 1272 57
 921 00c8 FB68     		ldr	r3, [r7, #12]
 922 00ca 1B8D     		ldrh	r3, [r3, #40]
 923              		.loc 1 1272 7
 924 00cc DAB2     		uxtb	r2, r3
 925 00ce 8023     		movs	r3, #128
 926 00d0 9C04     		lsls	r4, r3, #18
 927 00d2 0A23     		movs	r3, #10
 928 00d4 FB18     		adds	r3, r7, r3
 929 00d6 1988     		ldrh	r1, [r3]
 930 00d8 F868     		ldr	r0, [r7, #12]
 931 00da 4B4B     		ldr	r3, .L43
 932 00dc 0093     		str	r3, [sp]
 933 00de 2300     		movs	r3, r4
 934 00e0 FFF7FEFF 		bl	I2C_TransferConfig
1273:Drivers/STM32L0xx_HAL_Driver/Src/stm32l0xx_hal_i2c.c ****                          I2C_GENERATE_START_READ);
1274:Drivers/STM32L0xx_HAL_Driver/Src/stm32l0xx_hal_i2c.c ****     }
1275:Drivers/STM32L0xx_HAL_Driver/Src/stm32l0xx_hal_i2c.c **** 
1276:Drivers/STM32L0xx_HAL_Driver/Src/stm32l0xx_hal_i2c.c ****     while (hi2c->XferCount > 0U)
 935              		.loc 1 1276 11
 936 00e4 62E0     		b	.L37
 937              	.L41:
1277:Drivers/STM32L0xx_HAL_Driver/Src/stm32l0xx_hal_i2c.c ****     {
1278:Drivers/STM32L0xx_HAL_Driver/Src/stm32l0xx_hal_i2c.c ****       /* Wait until RXNE flag is set */
1279:Drivers/STM32L0xx_HAL_Driver/Src/stm32l0xx_hal_i2c.c ****       if (I2C_WaitOnRXNEFlagUntilTimeout(hi2c, Timeout, tickstart) != HAL_OK)
 938              		.loc 1 1279 11
 939 00e6 7A69     		ldr	r2, [r7, #20]
 940 00e8 B96A     		ldr	r1, [r7, #40]
 941 00ea FB68     		ldr	r3, [r7, #12]
 942 00ec 1800     		movs	r0, r3
 943 00ee FFF7FEFF 		bl	I2C_WaitOnRXNEFlagUntilTimeout
 944 00f2 031E     		subs	r3, r0, #0
 945              		.loc 1 1279 10
 946 00f4 01D0     		beq	.L38
1280:Drivers/STM32L0xx_HAL_Driver/Src/stm32l0xx_hal_i2c.c ****       {
1281:Drivers/STM32L0xx_HAL_Driver/Src/stm32l0xx_hal_i2c.c ****         return HAL_ERROR;
 947              		.loc 1 1281 16
 948 00f6 0123     		movs	r3, #1
ARM GAS  /var/folders/fs/dxwfnrqj18z860lwl3d6f5t00000gn/T//cc1liz9x.s 			page 40


 949 00f8 82E0     		b	.L33
 950              	.L38:
1282:Drivers/STM32L0xx_HAL_Driver/Src/stm32l0xx_hal_i2c.c ****       }
1283:Drivers/STM32L0xx_HAL_Driver/Src/stm32l0xx_hal_i2c.c **** 
1284:Drivers/STM32L0xx_HAL_Driver/Src/stm32l0xx_hal_i2c.c ****       /* Read data from RXDR */
1285:Drivers/STM32L0xx_HAL_Driver/Src/stm32l0xx_hal_i2c.c ****       *hi2c->pBuffPtr = (uint8_t)hi2c->Instance->RXDR;
 951              		.loc 1 1285 38
 952 00fa FB68     		ldr	r3, [r7, #12]
 953 00fc 1B68     		ldr	r3, [r3]
 954              		.loc 1 1285 48
 955 00fe 5A6A     		ldr	r2, [r3, #36]
 956              		.loc 1 1285 12
 957 0100 FB68     		ldr	r3, [r7, #12]
 958 0102 5B6A     		ldr	r3, [r3, #36]
 959              		.loc 1 1285 25
 960 0104 D2B2     		uxtb	r2, r2
 961              		.loc 1 1285 23
 962 0106 1A70     		strb	r2, [r3]
1286:Drivers/STM32L0xx_HAL_Driver/Src/stm32l0xx_hal_i2c.c **** 
1287:Drivers/STM32L0xx_HAL_Driver/Src/stm32l0xx_hal_i2c.c ****       /* Increment Buffer pointer */
1288:Drivers/STM32L0xx_HAL_Driver/Src/stm32l0xx_hal_i2c.c ****       hi2c->pBuffPtr++;
 963              		.loc 1 1288 11
 964 0108 FB68     		ldr	r3, [r7, #12]
 965 010a 5B6A     		ldr	r3, [r3, #36]
 966              		.loc 1 1288 21
 967 010c 5A1C     		adds	r2, r3, #1
 968 010e FB68     		ldr	r3, [r7, #12]
 969 0110 5A62     		str	r2, [r3, #36]
1289:Drivers/STM32L0xx_HAL_Driver/Src/stm32l0xx_hal_i2c.c **** 
1290:Drivers/STM32L0xx_HAL_Driver/Src/stm32l0xx_hal_i2c.c ****       hi2c->XferSize--;
 970              		.loc 1 1290 11
 971 0112 FB68     		ldr	r3, [r7, #12]
 972 0114 1B8D     		ldrh	r3, [r3, #40]
 973              		.loc 1 1290 21
 974 0116 013B     		subs	r3, r3, #1
 975 0118 9AB2     		uxth	r2, r3
 976 011a FB68     		ldr	r3, [r7, #12]
 977 011c 1A85     		strh	r2, [r3, #40]
1291:Drivers/STM32L0xx_HAL_Driver/Src/stm32l0xx_hal_i2c.c ****       hi2c->XferCount--;
 978              		.loc 1 1291 11
 979 011e FB68     		ldr	r3, [r7, #12]
 980 0120 5B8D     		ldrh	r3, [r3, #42]
 981 0122 9BB2     		uxth	r3, r3
 982              		.loc 1 1291 22
 983 0124 013B     		subs	r3, r3, #1
 984 0126 9AB2     		uxth	r2, r3
 985 0128 FB68     		ldr	r3, [r7, #12]
 986 012a 5A85     		strh	r2, [r3, #42]
1292:Drivers/STM32L0xx_HAL_Driver/Src/stm32l0xx_hal_i2c.c **** 
1293:Drivers/STM32L0xx_HAL_Driver/Src/stm32l0xx_hal_i2c.c ****       if ((hi2c->XferCount != 0U) && (hi2c->XferSize == 0U))
 987              		.loc 1 1293 16
 988 012c FB68     		ldr	r3, [r7, #12]
 989 012e 5B8D     		ldrh	r3, [r3, #42]
 990 0130 9BB2     		uxth	r3, r3
 991              		.loc 1 1293 10
 992 0132 002B     		cmp	r3, #0
 993 0134 3AD0     		beq	.L37
ARM GAS  /var/folders/fs/dxwfnrqj18z860lwl3d6f5t00000gn/T//cc1liz9x.s 			page 41


 994              		.loc 1 1293 43 discriminator 1
 995 0136 FB68     		ldr	r3, [r7, #12]
 996 0138 1B8D     		ldrh	r3, [r3, #40]
 997              		.loc 1 1293 35 discriminator 1
 998 013a 002B     		cmp	r3, #0
 999 013c 36D1     		bne	.L37
1294:Drivers/STM32L0xx_HAL_Driver/Src/stm32l0xx_hal_i2c.c ****       {
1295:Drivers/STM32L0xx_HAL_Driver/Src/stm32l0xx_hal_i2c.c ****         /* Wait until TCR flag is set */
1296:Drivers/STM32L0xx_HAL_Driver/Src/stm32l0xx_hal_i2c.c ****         if (I2C_WaitOnFlagUntilTimeout(hi2c, I2C_FLAG_TCR, RESET, Timeout, tickstart) != HAL_OK)
 1000              		.loc 1 1296 13
 1001 013e BA6A     		ldr	r2, [r7, #40]
 1002 0140 F868     		ldr	r0, [r7, #12]
 1003 0142 7B69     		ldr	r3, [r7, #20]
 1004 0144 0093     		str	r3, [sp]
 1005 0146 1300     		movs	r3, r2
 1006 0148 0022     		movs	r2, #0
 1007 014a 8021     		movs	r1, #128
 1008 014c FFF7FEFF 		bl	I2C_WaitOnFlagUntilTimeout
 1009 0150 031E     		subs	r3, r0, #0
 1010              		.loc 1 1296 12
 1011 0152 01D0     		beq	.L39
1297:Drivers/STM32L0xx_HAL_Driver/Src/stm32l0xx_hal_i2c.c ****         {
1298:Drivers/STM32L0xx_HAL_Driver/Src/stm32l0xx_hal_i2c.c ****           return HAL_ERROR;
 1012              		.loc 1 1298 18
 1013 0154 0123     		movs	r3, #1
 1014 0156 53E0     		b	.L33
 1015              	.L39:
1299:Drivers/STM32L0xx_HAL_Driver/Src/stm32l0xx_hal_i2c.c ****         }
1300:Drivers/STM32L0xx_HAL_Driver/Src/stm32l0xx_hal_i2c.c **** 
1301:Drivers/STM32L0xx_HAL_Driver/Src/stm32l0xx_hal_i2c.c ****         if (hi2c->XferCount > MAX_NBYTE_SIZE)
 1016              		.loc 1 1301 17
 1017 0158 FB68     		ldr	r3, [r7, #12]
 1018 015a 5B8D     		ldrh	r3, [r3, #42]
 1019 015c 9BB2     		uxth	r3, r3
 1020              		.loc 1 1301 12
 1021 015e FF2B     		cmp	r3, #255
 1022 0160 11D9     		bls	.L40
1302:Drivers/STM32L0xx_HAL_Driver/Src/stm32l0xx_hal_i2c.c ****         {
1303:Drivers/STM32L0xx_HAL_Driver/Src/stm32l0xx_hal_i2c.c ****           hi2c->XferSize = MAX_NBYTE_SIZE;
 1023              		.loc 1 1303 26
 1024 0162 FB68     		ldr	r3, [r7, #12]
 1025 0164 FF22     		movs	r2, #255
 1026 0166 1A85     		strh	r2, [r3, #40]
1304:Drivers/STM32L0xx_HAL_Driver/Src/stm32l0xx_hal_i2c.c ****           I2C_TransferConfig(hi2c, DevAddress, (uint8_t)hi2c->XferSize, I2C_RELOAD_MODE,
 1027              		.loc 1 1304 61
 1028 0168 FB68     		ldr	r3, [r7, #12]
 1029 016a 1B8D     		ldrh	r3, [r3, #40]
 1030              		.loc 1 1304 11
 1031 016c DAB2     		uxtb	r2, r3
 1032 016e 8023     		movs	r3, #128
 1033 0170 5C04     		lsls	r4, r3, #17
 1034 0172 0A23     		movs	r3, #10
 1035 0174 FB18     		adds	r3, r7, r3
 1036 0176 1988     		ldrh	r1, [r3]
 1037 0178 F868     		ldr	r0, [r7, #12]
 1038 017a 0023     		movs	r3, #0
 1039 017c 0093     		str	r3, [sp]
ARM GAS  /var/folders/fs/dxwfnrqj18z860lwl3d6f5t00000gn/T//cc1liz9x.s 			page 42


 1040 017e 2300     		movs	r3, r4
 1041 0180 FFF7FEFF 		bl	I2C_TransferConfig
 1042 0184 12E0     		b	.L37
 1043              	.L40:
1305:Drivers/STM32L0xx_HAL_Driver/Src/stm32l0xx_hal_i2c.c ****                              I2C_NO_STARTSTOP);
1306:Drivers/STM32L0xx_HAL_Driver/Src/stm32l0xx_hal_i2c.c ****         }
1307:Drivers/STM32L0xx_HAL_Driver/Src/stm32l0xx_hal_i2c.c ****         else
1308:Drivers/STM32L0xx_HAL_Driver/Src/stm32l0xx_hal_i2c.c ****         {
1309:Drivers/STM32L0xx_HAL_Driver/Src/stm32l0xx_hal_i2c.c ****           hi2c->XferSize = hi2c->XferCount;
 1044              		.loc 1 1309 32
 1045 0186 FB68     		ldr	r3, [r7, #12]
 1046 0188 5B8D     		ldrh	r3, [r3, #42]
 1047 018a 9AB2     		uxth	r2, r3
 1048              		.loc 1 1309 26
 1049 018c FB68     		ldr	r3, [r7, #12]
 1050 018e 1A85     		strh	r2, [r3, #40]
1310:Drivers/STM32L0xx_HAL_Driver/Src/stm32l0xx_hal_i2c.c ****           I2C_TransferConfig(hi2c, DevAddress, (uint8_t)hi2c->XferSize, I2C_AUTOEND_MODE,
 1051              		.loc 1 1310 61
 1052 0190 FB68     		ldr	r3, [r7, #12]
 1053 0192 1B8D     		ldrh	r3, [r3, #40]
 1054              		.loc 1 1310 11
 1055 0194 DAB2     		uxtb	r2, r3
 1056 0196 8023     		movs	r3, #128
 1057 0198 9C04     		lsls	r4, r3, #18
 1058 019a 0A23     		movs	r3, #10
 1059 019c FB18     		adds	r3, r7, r3
 1060 019e 1988     		ldrh	r1, [r3]
 1061 01a0 F868     		ldr	r0, [r7, #12]
 1062 01a2 0023     		movs	r3, #0
 1063 01a4 0093     		str	r3, [sp]
 1064 01a6 2300     		movs	r3, r4
 1065 01a8 FFF7FEFF 		bl	I2C_TransferConfig
 1066              	.L37:
1276:Drivers/STM32L0xx_HAL_Driver/Src/stm32l0xx_hal_i2c.c ****     {
 1067              		.loc 1 1276 16
 1068 01ac FB68     		ldr	r3, [r7, #12]
 1069 01ae 5B8D     		ldrh	r3, [r3, #42]
 1070 01b0 9BB2     		uxth	r3, r3
1276:Drivers/STM32L0xx_HAL_Driver/Src/stm32l0xx_hal_i2c.c ****     {
 1071              		.loc 1 1276 11
 1072 01b2 002B     		cmp	r3, #0
 1073 01b4 97D1     		bne	.L41
1311:Drivers/STM32L0xx_HAL_Driver/Src/stm32l0xx_hal_i2c.c ****                              I2C_NO_STARTSTOP);
1312:Drivers/STM32L0xx_HAL_Driver/Src/stm32l0xx_hal_i2c.c ****         }
1313:Drivers/STM32L0xx_HAL_Driver/Src/stm32l0xx_hal_i2c.c ****       }
1314:Drivers/STM32L0xx_HAL_Driver/Src/stm32l0xx_hal_i2c.c ****     }
1315:Drivers/STM32L0xx_HAL_Driver/Src/stm32l0xx_hal_i2c.c **** 
1316:Drivers/STM32L0xx_HAL_Driver/Src/stm32l0xx_hal_i2c.c ****     /* No need to Check TC flag, with AUTOEND mode the stop is automatically generated */
1317:Drivers/STM32L0xx_HAL_Driver/Src/stm32l0xx_hal_i2c.c ****     /* Wait until STOPF flag is set */
1318:Drivers/STM32L0xx_HAL_Driver/Src/stm32l0xx_hal_i2c.c ****     if (I2C_WaitOnSTOPFlagUntilTimeout(hi2c, Timeout, tickstart) != HAL_OK)
 1074              		.loc 1 1318 9
 1075 01b6 7A69     		ldr	r2, [r7, #20]
 1076 01b8 B96A     		ldr	r1, [r7, #40]
 1077 01ba FB68     		ldr	r3, [r7, #12]
 1078 01bc 1800     		movs	r0, r3
 1079 01be FFF7FEFF 		bl	I2C_WaitOnSTOPFlagUntilTimeout
 1080 01c2 031E     		subs	r3, r0, #0
ARM GAS  /var/folders/fs/dxwfnrqj18z860lwl3d6f5t00000gn/T//cc1liz9x.s 			page 43


 1081              		.loc 1 1318 8
 1082 01c4 01D0     		beq	.L42
1319:Drivers/STM32L0xx_HAL_Driver/Src/stm32l0xx_hal_i2c.c ****     {
1320:Drivers/STM32L0xx_HAL_Driver/Src/stm32l0xx_hal_i2c.c ****       return HAL_ERROR;
 1083              		.loc 1 1320 14
 1084 01c6 0123     		movs	r3, #1
 1085 01c8 1AE0     		b	.L33
 1086              	.L42:
1321:Drivers/STM32L0xx_HAL_Driver/Src/stm32l0xx_hal_i2c.c ****     }
1322:Drivers/STM32L0xx_HAL_Driver/Src/stm32l0xx_hal_i2c.c **** 
1323:Drivers/STM32L0xx_HAL_Driver/Src/stm32l0xx_hal_i2c.c ****     /* Clear STOP Flag */
1324:Drivers/STM32L0xx_HAL_Driver/Src/stm32l0xx_hal_i2c.c ****     __HAL_I2C_CLEAR_FLAG(hi2c, I2C_FLAG_STOPF);
 1087              		.loc 1 1324 5
 1088 01ca FB68     		ldr	r3, [r7, #12]
 1089 01cc 1B68     		ldr	r3, [r3]
 1090 01ce 2022     		movs	r2, #32
 1091 01d0 DA61     		str	r2, [r3, #28]
1325:Drivers/STM32L0xx_HAL_Driver/Src/stm32l0xx_hal_i2c.c **** 
1326:Drivers/STM32L0xx_HAL_Driver/Src/stm32l0xx_hal_i2c.c ****     /* Clear Configuration Register 2 */
1327:Drivers/STM32L0xx_HAL_Driver/Src/stm32l0xx_hal_i2c.c ****     I2C_RESET_CR2(hi2c);
 1092              		.loc 1 1327 5
 1093 01d2 FB68     		ldr	r3, [r7, #12]
 1094 01d4 1B68     		ldr	r3, [r3]
 1095 01d6 5A68     		ldr	r2, [r3, #4]
 1096 01d8 FB68     		ldr	r3, [r7, #12]
 1097 01da 1B68     		ldr	r3, [r3]
 1098 01dc 0B49     		ldr	r1, .L43+4
 1099 01de 0A40     		ands	r2, r1
 1100 01e0 5A60     		str	r2, [r3, #4]
1328:Drivers/STM32L0xx_HAL_Driver/Src/stm32l0xx_hal_i2c.c **** 
1329:Drivers/STM32L0xx_HAL_Driver/Src/stm32l0xx_hal_i2c.c ****     hi2c->State = HAL_I2C_STATE_READY;
 1101              		.loc 1 1329 17
 1102 01e2 FB68     		ldr	r3, [r7, #12]
 1103 01e4 4122     		movs	r2, #65
 1104 01e6 2021     		movs	r1, #32
 1105 01e8 9954     		strb	r1, [r3, r2]
1330:Drivers/STM32L0xx_HAL_Driver/Src/stm32l0xx_hal_i2c.c ****     hi2c->Mode  = HAL_I2C_MODE_NONE;
 1106              		.loc 1 1330 17
 1107 01ea FB68     		ldr	r3, [r7, #12]
 1108 01ec 4222     		movs	r2, #66
 1109 01ee 0021     		movs	r1, #0
 1110 01f0 9954     		strb	r1, [r3, r2]
1331:Drivers/STM32L0xx_HAL_Driver/Src/stm32l0xx_hal_i2c.c **** 
1332:Drivers/STM32L0xx_HAL_Driver/Src/stm32l0xx_hal_i2c.c ****     /* Process Unlocked */
1333:Drivers/STM32L0xx_HAL_Driver/Src/stm32l0xx_hal_i2c.c ****     __HAL_UNLOCK(hi2c);
 1111              		.loc 1 1333 5
 1112 01f2 FB68     		ldr	r3, [r7, #12]
 1113 01f4 4022     		movs	r2, #64
 1114 01f6 0021     		movs	r1, #0
 1115 01f8 9954     		strb	r1, [r3, r2]
1334:Drivers/STM32L0xx_HAL_Driver/Src/stm32l0xx_hal_i2c.c **** 
1335:Drivers/STM32L0xx_HAL_Driver/Src/stm32l0xx_hal_i2c.c ****     return HAL_OK;
 1116              		.loc 1 1335 12
 1117 01fa 0023     		movs	r3, #0
 1118 01fc 00E0     		b	.L33
 1119              	.L31:
1336:Drivers/STM32L0xx_HAL_Driver/Src/stm32l0xx_hal_i2c.c ****   }
ARM GAS  /var/folders/fs/dxwfnrqj18z860lwl3d6f5t00000gn/T//cc1liz9x.s 			page 44


1337:Drivers/STM32L0xx_HAL_Driver/Src/stm32l0xx_hal_i2c.c ****   else
1338:Drivers/STM32L0xx_HAL_Driver/Src/stm32l0xx_hal_i2c.c ****   {
1339:Drivers/STM32L0xx_HAL_Driver/Src/stm32l0xx_hal_i2c.c ****     return HAL_BUSY;
 1120              		.loc 1 1339 12
 1121 01fe 0223     		movs	r3, #2
 1122              	.L33:
1340:Drivers/STM32L0xx_HAL_Driver/Src/stm32l0xx_hal_i2c.c ****   }
1341:Drivers/STM32L0xx_HAL_Driver/Src/stm32l0xx_hal_i2c.c **** }
 1123              		.loc 1 1341 1
 1124 0200 1800     		movs	r0, r3
 1125 0202 BD46     		mov	sp, r7
 1126 0204 07B0     		add	sp, sp, #28
 1127              		@ sp needed
 1128 0206 90BD     		pop	{r4, r7, pc}
 1129              	.L44:
 1130              		.align	2
 1131              	.L43:
 1132 0208 00240080 		.word	-2147474432
 1133 020c 00E800FE 		.word	-33495040
 1134              		.cfi_endproc
 1135              	.LFE52:
 1137              		.section	.text.HAL_I2C_Slave_Transmit,"ax",%progbits
 1138              		.align	1
 1139              		.global	HAL_I2C_Slave_Transmit
 1140              		.syntax unified
 1141              		.code	16
 1142              		.thumb_func
 1143              		.fpu softvfp
 1145              	HAL_I2C_Slave_Transmit:
 1146              	.LFB53:
1342:Drivers/STM32L0xx_HAL_Driver/Src/stm32l0xx_hal_i2c.c **** 
1343:Drivers/STM32L0xx_HAL_Driver/Src/stm32l0xx_hal_i2c.c **** /**
1344:Drivers/STM32L0xx_HAL_Driver/Src/stm32l0xx_hal_i2c.c ****   * @brief  Transmits in slave mode an amount of data in blocking mode.
1345:Drivers/STM32L0xx_HAL_Driver/Src/stm32l0xx_hal_i2c.c ****   * @param  hi2c Pointer to a I2C_HandleTypeDef structure that contains
1346:Drivers/STM32L0xx_HAL_Driver/Src/stm32l0xx_hal_i2c.c ****   *                the configuration information for the specified I2C.
1347:Drivers/STM32L0xx_HAL_Driver/Src/stm32l0xx_hal_i2c.c ****   * @param  pData Pointer to data buffer
1348:Drivers/STM32L0xx_HAL_Driver/Src/stm32l0xx_hal_i2c.c ****   * @param  Size Amount of data to be sent
1349:Drivers/STM32L0xx_HAL_Driver/Src/stm32l0xx_hal_i2c.c ****   * @param  Timeout Timeout duration
1350:Drivers/STM32L0xx_HAL_Driver/Src/stm32l0xx_hal_i2c.c ****   * @retval HAL status
1351:Drivers/STM32L0xx_HAL_Driver/Src/stm32l0xx_hal_i2c.c ****   */
1352:Drivers/STM32L0xx_HAL_Driver/Src/stm32l0xx_hal_i2c.c **** HAL_StatusTypeDef HAL_I2C_Slave_Transmit(I2C_HandleTypeDef *hi2c, uint8_t *pData, uint16_t Size,
1353:Drivers/STM32L0xx_HAL_Driver/Src/stm32l0xx_hal_i2c.c ****                                          uint32_t Timeout)
1354:Drivers/STM32L0xx_HAL_Driver/Src/stm32l0xx_hal_i2c.c **** {
 1147              		.loc 1 1354 1
 1148              		.cfi_startproc
 1149              		@ args = 0, pretend = 0, frame = 24
 1150              		@ frame_needed = 1, uses_anonymous_args = 0
 1151 0000 80B5     		push	{r7, lr}
 1152              	.LCFI18:
 1153              		.cfi_def_cfa_offset 8
 1154              		.cfi_offset 7, -8
 1155              		.cfi_offset 14, -4
 1156 0002 88B0     		sub	sp, sp, #32
 1157              	.LCFI19:
 1158              		.cfi_def_cfa_offset 40
 1159 0004 02AF     		add	r7, sp, #8
 1160              	.LCFI20:
ARM GAS  /var/folders/fs/dxwfnrqj18z860lwl3d6f5t00000gn/T//cc1liz9x.s 			page 45


 1161              		.cfi_def_cfa 7, 32
 1162 0006 F860     		str	r0, [r7, #12]
 1163 0008 B960     		str	r1, [r7, #8]
 1164 000a 3B60     		str	r3, [r7]
 1165 000c BB1D     		adds	r3, r7, #6
 1166 000e 1A80     		strh	r2, [r3]
1355:Drivers/STM32L0xx_HAL_Driver/Src/stm32l0xx_hal_i2c.c ****   uint32_t tickstart;
1356:Drivers/STM32L0xx_HAL_Driver/Src/stm32l0xx_hal_i2c.c **** 
1357:Drivers/STM32L0xx_HAL_Driver/Src/stm32l0xx_hal_i2c.c ****   if (hi2c->State == HAL_I2C_STATE_READY)
 1167              		.loc 1 1357 11
 1168 0010 FB68     		ldr	r3, [r7, #12]
 1169 0012 4122     		movs	r2, #65
 1170 0014 9B5C     		ldrb	r3, [r3, r2]
 1171 0016 DBB2     		uxtb	r3, r3
 1172              		.loc 1 1357 6
 1173 0018 202B     		cmp	r3, #32
 1174 001a 00D0     		beq	.LCB959
 1175 001c FEE0     		b	.L46	@long jump
 1176              	.LCB959:
1358:Drivers/STM32L0xx_HAL_Driver/Src/stm32l0xx_hal_i2c.c ****   {
1359:Drivers/STM32L0xx_HAL_Driver/Src/stm32l0xx_hal_i2c.c ****     if ((pData == NULL) || (Size == 0U))
 1177              		.loc 1 1359 8
 1178 001e BB68     		ldr	r3, [r7, #8]
 1179 0020 002B     		cmp	r3, #0
 1180 0022 03D0     		beq	.L47
 1181              		.loc 1 1359 25 discriminator 1
 1182 0024 BB1D     		adds	r3, r7, #6
 1183 0026 1B88     		ldrh	r3, [r3]
 1184 0028 002B     		cmp	r3, #0
 1185 002a 05D1     		bne	.L48
 1186              	.L47:
1360:Drivers/STM32L0xx_HAL_Driver/Src/stm32l0xx_hal_i2c.c ****     {
1361:Drivers/STM32L0xx_HAL_Driver/Src/stm32l0xx_hal_i2c.c ****       hi2c->ErrorCode = HAL_I2C_ERROR_INVALID_PARAM;
 1187              		.loc 1 1361 23
 1188 002c FB68     		ldr	r3, [r7, #12]
 1189 002e 8022     		movs	r2, #128
 1190 0030 9200     		lsls	r2, r2, #2
 1191 0032 5A64     		str	r2, [r3, #68]
1362:Drivers/STM32L0xx_HAL_Driver/Src/stm32l0xx_hal_i2c.c ****       return  HAL_ERROR;
 1192              		.loc 1 1362 15
 1193 0034 0123     		movs	r3, #1
 1194 0036 F2E0     		b	.L49
 1195              	.L48:
1363:Drivers/STM32L0xx_HAL_Driver/Src/stm32l0xx_hal_i2c.c ****     }
1364:Drivers/STM32L0xx_HAL_Driver/Src/stm32l0xx_hal_i2c.c ****     /* Process Locked */
1365:Drivers/STM32L0xx_HAL_Driver/Src/stm32l0xx_hal_i2c.c ****     __HAL_LOCK(hi2c);
 1196              		.loc 1 1365 5
 1197 0038 FB68     		ldr	r3, [r7, #12]
 1198 003a 4022     		movs	r2, #64
 1199 003c 9B5C     		ldrb	r3, [r3, r2]
 1200 003e 012B     		cmp	r3, #1
 1201 0040 01D1     		bne	.L50
 1202              		.loc 1 1365 5 is_stmt 0 discriminator 1
 1203 0042 0223     		movs	r3, #2
 1204 0044 EBE0     		b	.L49
 1205              	.L50:
 1206              		.loc 1 1365 5 discriminator 2
ARM GAS  /var/folders/fs/dxwfnrqj18z860lwl3d6f5t00000gn/T//cc1liz9x.s 			page 46


 1207 0046 FB68     		ldr	r3, [r7, #12]
 1208 0048 4022     		movs	r2, #64
 1209 004a 0121     		movs	r1, #1
 1210 004c 9954     		strb	r1, [r3, r2]
1366:Drivers/STM32L0xx_HAL_Driver/Src/stm32l0xx_hal_i2c.c **** 
1367:Drivers/STM32L0xx_HAL_Driver/Src/stm32l0xx_hal_i2c.c ****     /* Init tickstart for timeout management*/
1368:Drivers/STM32L0xx_HAL_Driver/Src/stm32l0xx_hal_i2c.c ****     tickstart = HAL_GetTick();
 1211              		.loc 1 1368 17 is_stmt 1 discriminator 2
 1212 004e FFF7FEFF 		bl	HAL_GetTick
 1213 0052 0300     		movs	r3, r0
 1214 0054 7B61     		str	r3, [r7, #20]
1369:Drivers/STM32L0xx_HAL_Driver/Src/stm32l0xx_hal_i2c.c **** 
1370:Drivers/STM32L0xx_HAL_Driver/Src/stm32l0xx_hal_i2c.c ****     hi2c->State     = HAL_I2C_STATE_BUSY_TX;
 1215              		.loc 1 1370 21 discriminator 2
 1216 0056 FB68     		ldr	r3, [r7, #12]
 1217 0058 4122     		movs	r2, #65
 1218 005a 2121     		movs	r1, #33
 1219 005c 9954     		strb	r1, [r3, r2]
1371:Drivers/STM32L0xx_HAL_Driver/Src/stm32l0xx_hal_i2c.c ****     hi2c->Mode      = HAL_I2C_MODE_SLAVE;
 1220              		.loc 1 1371 21 discriminator 2
 1221 005e FB68     		ldr	r3, [r7, #12]
 1222 0060 4222     		movs	r2, #66
 1223 0062 2021     		movs	r1, #32
 1224 0064 9954     		strb	r1, [r3, r2]
1372:Drivers/STM32L0xx_HAL_Driver/Src/stm32l0xx_hal_i2c.c ****     hi2c->ErrorCode = HAL_I2C_ERROR_NONE;
 1225              		.loc 1 1372 21 discriminator 2
 1226 0066 FB68     		ldr	r3, [r7, #12]
 1227 0068 0022     		movs	r2, #0
 1228 006a 5A64     		str	r2, [r3, #68]
1373:Drivers/STM32L0xx_HAL_Driver/Src/stm32l0xx_hal_i2c.c **** 
1374:Drivers/STM32L0xx_HAL_Driver/Src/stm32l0xx_hal_i2c.c ****     /* Prepare transfer parameters */
1375:Drivers/STM32L0xx_HAL_Driver/Src/stm32l0xx_hal_i2c.c ****     hi2c->pBuffPtr  = pData;
 1229              		.loc 1 1375 21 discriminator 2
 1230 006c FB68     		ldr	r3, [r7, #12]
 1231 006e BA68     		ldr	r2, [r7, #8]
 1232 0070 5A62     		str	r2, [r3, #36]
1376:Drivers/STM32L0xx_HAL_Driver/Src/stm32l0xx_hal_i2c.c ****     hi2c->XferCount = Size;
 1233              		.loc 1 1376 21 discriminator 2
 1234 0072 FB68     		ldr	r3, [r7, #12]
 1235 0074 BA1D     		adds	r2, r7, #6
 1236 0076 1288     		ldrh	r2, [r2]
 1237 0078 5A85     		strh	r2, [r3, #42]
1377:Drivers/STM32L0xx_HAL_Driver/Src/stm32l0xx_hal_i2c.c ****     hi2c->XferISR   = NULL;
 1238              		.loc 1 1377 21 discriminator 2
 1239 007a FB68     		ldr	r3, [r7, #12]
 1240 007c 0022     		movs	r2, #0
 1241 007e 5A63     		str	r2, [r3, #52]
1378:Drivers/STM32L0xx_HAL_Driver/Src/stm32l0xx_hal_i2c.c **** 
1379:Drivers/STM32L0xx_HAL_Driver/Src/stm32l0xx_hal_i2c.c ****     /* Enable Address Acknowledge */
1380:Drivers/STM32L0xx_HAL_Driver/Src/stm32l0xx_hal_i2c.c ****     hi2c->Instance->CR2 &= ~I2C_CR2_NACK;
 1242              		.loc 1 1380 9 discriminator 2
 1243 0080 FB68     		ldr	r3, [r7, #12]
 1244 0082 1B68     		ldr	r3, [r3]
 1245              		.loc 1 1380 25 discriminator 2
 1246 0084 5A68     		ldr	r2, [r3, #4]
 1247              		.loc 1 1380 9 discriminator 2
 1248 0086 FB68     		ldr	r3, [r7, #12]
ARM GAS  /var/folders/fs/dxwfnrqj18z860lwl3d6f5t00000gn/T//cc1liz9x.s 			page 47


 1249 0088 1B68     		ldr	r3, [r3]
 1250              		.loc 1 1380 25 discriminator 2
 1251 008a 6749     		ldr	r1, .L61
 1252 008c 0A40     		ands	r2, r1
 1253 008e 5A60     		str	r2, [r3, #4]
1381:Drivers/STM32L0xx_HAL_Driver/Src/stm32l0xx_hal_i2c.c **** 
1382:Drivers/STM32L0xx_HAL_Driver/Src/stm32l0xx_hal_i2c.c ****     /* Wait until ADDR flag is set */
1383:Drivers/STM32L0xx_HAL_Driver/Src/stm32l0xx_hal_i2c.c ****     if (I2C_WaitOnFlagUntilTimeout(hi2c, I2C_FLAG_ADDR, RESET, Timeout, tickstart) != HAL_OK)
 1254              		.loc 1 1383 9 discriminator 2
 1255 0090 3A68     		ldr	r2, [r7]
 1256 0092 F868     		ldr	r0, [r7, #12]
 1257 0094 7B69     		ldr	r3, [r7, #20]
 1258 0096 0093     		str	r3, [sp]
 1259 0098 1300     		movs	r3, r2
 1260 009a 0022     		movs	r2, #0
 1261 009c 0821     		movs	r1, #8
 1262 009e FFF7FEFF 		bl	I2C_WaitOnFlagUntilTimeout
 1263 00a2 031E     		subs	r3, r0, #0
 1264              		.loc 1 1383 8 discriminator 2
 1265 00a4 0AD0     		beq	.L51
1384:Drivers/STM32L0xx_HAL_Driver/Src/stm32l0xx_hal_i2c.c ****     {
1385:Drivers/STM32L0xx_HAL_Driver/Src/stm32l0xx_hal_i2c.c ****       /* Disable Address Acknowledge */
1386:Drivers/STM32L0xx_HAL_Driver/Src/stm32l0xx_hal_i2c.c ****       hi2c->Instance->CR2 |= I2C_CR2_NACK;
 1266              		.loc 1 1386 11
 1267 00a6 FB68     		ldr	r3, [r7, #12]
 1268 00a8 1B68     		ldr	r3, [r3]
 1269              		.loc 1 1386 27
 1270 00aa 5A68     		ldr	r2, [r3, #4]
 1271              		.loc 1 1386 11
 1272 00ac FB68     		ldr	r3, [r7, #12]
 1273 00ae 1B68     		ldr	r3, [r3]
 1274              		.loc 1 1386 27
 1275 00b0 8021     		movs	r1, #128
 1276 00b2 0902     		lsls	r1, r1, #8
 1277 00b4 0A43     		orrs	r2, r1
 1278 00b6 5A60     		str	r2, [r3, #4]
1387:Drivers/STM32L0xx_HAL_Driver/Src/stm32l0xx_hal_i2c.c ****       return HAL_ERROR;
 1279              		.loc 1 1387 14
 1280 00b8 0123     		movs	r3, #1
 1281 00ba B0E0     		b	.L49
 1282              	.L51:
1388:Drivers/STM32L0xx_HAL_Driver/Src/stm32l0xx_hal_i2c.c ****     }
1389:Drivers/STM32L0xx_HAL_Driver/Src/stm32l0xx_hal_i2c.c **** 
1390:Drivers/STM32L0xx_HAL_Driver/Src/stm32l0xx_hal_i2c.c ****     /* Clear ADDR flag */
1391:Drivers/STM32L0xx_HAL_Driver/Src/stm32l0xx_hal_i2c.c ****     __HAL_I2C_CLEAR_FLAG(hi2c, I2C_FLAG_ADDR);
 1283              		.loc 1 1391 5
 1284 00bc FB68     		ldr	r3, [r7, #12]
 1285 00be 1B68     		ldr	r3, [r3]
 1286 00c0 0822     		movs	r2, #8
 1287 00c2 DA61     		str	r2, [r3, #28]
1392:Drivers/STM32L0xx_HAL_Driver/Src/stm32l0xx_hal_i2c.c **** 
1393:Drivers/STM32L0xx_HAL_Driver/Src/stm32l0xx_hal_i2c.c ****     /* If 10bit addressing mode is selected */
1394:Drivers/STM32L0xx_HAL_Driver/Src/stm32l0xx_hal_i2c.c ****     if (hi2c->Init.AddressingMode == I2C_ADDRESSINGMODE_10BIT)
 1288              		.loc 1 1394 19
 1289 00c4 FB68     		ldr	r3, [r7, #12]
 1290 00c6 DB68     		ldr	r3, [r3, #12]
 1291              		.loc 1 1394 8
ARM GAS  /var/folders/fs/dxwfnrqj18z860lwl3d6f5t00000gn/T//cc1liz9x.s 			page 48


 1292 00c8 022B     		cmp	r3, #2
 1293 00ca 19D1     		bne	.L52
1395:Drivers/STM32L0xx_HAL_Driver/Src/stm32l0xx_hal_i2c.c ****     {
1396:Drivers/STM32L0xx_HAL_Driver/Src/stm32l0xx_hal_i2c.c ****       /* Wait until ADDR flag is set */
1397:Drivers/STM32L0xx_HAL_Driver/Src/stm32l0xx_hal_i2c.c ****       if (I2C_WaitOnFlagUntilTimeout(hi2c, I2C_FLAG_ADDR, RESET, Timeout, tickstart) != HAL_OK)
 1294              		.loc 1 1397 11
 1295 00cc 3A68     		ldr	r2, [r7]
 1296 00ce F868     		ldr	r0, [r7, #12]
 1297 00d0 7B69     		ldr	r3, [r7, #20]
 1298 00d2 0093     		str	r3, [sp]
 1299 00d4 1300     		movs	r3, r2
 1300 00d6 0022     		movs	r2, #0
 1301 00d8 0821     		movs	r1, #8
 1302 00da FFF7FEFF 		bl	I2C_WaitOnFlagUntilTimeout
 1303 00de 031E     		subs	r3, r0, #0
 1304              		.loc 1 1397 10
 1305 00e0 0AD0     		beq	.L53
1398:Drivers/STM32L0xx_HAL_Driver/Src/stm32l0xx_hal_i2c.c ****       {
1399:Drivers/STM32L0xx_HAL_Driver/Src/stm32l0xx_hal_i2c.c ****         /* Disable Address Acknowledge */
1400:Drivers/STM32L0xx_HAL_Driver/Src/stm32l0xx_hal_i2c.c ****         hi2c->Instance->CR2 |= I2C_CR2_NACK;
 1306              		.loc 1 1400 13
 1307 00e2 FB68     		ldr	r3, [r7, #12]
 1308 00e4 1B68     		ldr	r3, [r3]
 1309              		.loc 1 1400 29
 1310 00e6 5A68     		ldr	r2, [r3, #4]
 1311              		.loc 1 1400 13
 1312 00e8 FB68     		ldr	r3, [r7, #12]
 1313 00ea 1B68     		ldr	r3, [r3]
 1314              		.loc 1 1400 29
 1315 00ec 8021     		movs	r1, #128
 1316 00ee 0902     		lsls	r1, r1, #8
 1317 00f0 0A43     		orrs	r2, r1
 1318 00f2 5A60     		str	r2, [r3, #4]
1401:Drivers/STM32L0xx_HAL_Driver/Src/stm32l0xx_hal_i2c.c ****         return HAL_ERROR;
 1319              		.loc 1 1401 16
 1320 00f4 0123     		movs	r3, #1
 1321 00f6 92E0     		b	.L49
 1322              	.L53:
1402:Drivers/STM32L0xx_HAL_Driver/Src/stm32l0xx_hal_i2c.c ****       }
1403:Drivers/STM32L0xx_HAL_Driver/Src/stm32l0xx_hal_i2c.c **** 
1404:Drivers/STM32L0xx_HAL_Driver/Src/stm32l0xx_hal_i2c.c ****       /* Clear ADDR flag */
1405:Drivers/STM32L0xx_HAL_Driver/Src/stm32l0xx_hal_i2c.c ****       __HAL_I2C_CLEAR_FLAG(hi2c, I2C_FLAG_ADDR);
 1323              		.loc 1 1405 7
 1324 00f8 FB68     		ldr	r3, [r7, #12]
 1325 00fa 1B68     		ldr	r3, [r3]
 1326 00fc 0822     		movs	r2, #8
 1327 00fe DA61     		str	r2, [r3, #28]
 1328              	.L52:
1406:Drivers/STM32L0xx_HAL_Driver/Src/stm32l0xx_hal_i2c.c ****     }
1407:Drivers/STM32L0xx_HAL_Driver/Src/stm32l0xx_hal_i2c.c **** 
1408:Drivers/STM32L0xx_HAL_Driver/Src/stm32l0xx_hal_i2c.c ****     /* Wait until DIR flag is set Transmitter mode */
1409:Drivers/STM32L0xx_HAL_Driver/Src/stm32l0xx_hal_i2c.c ****     if (I2C_WaitOnFlagUntilTimeout(hi2c, I2C_FLAG_DIR, RESET, Timeout, tickstart) != HAL_OK)
 1329              		.loc 1 1409 9
 1330 0100 3A68     		ldr	r2, [r7]
 1331 0102 8023     		movs	r3, #128
 1332 0104 5902     		lsls	r1, r3, #9
 1333 0106 F868     		ldr	r0, [r7, #12]
ARM GAS  /var/folders/fs/dxwfnrqj18z860lwl3d6f5t00000gn/T//cc1liz9x.s 			page 49


 1334 0108 7B69     		ldr	r3, [r7, #20]
 1335 010a 0093     		str	r3, [sp]
 1336 010c 1300     		movs	r3, r2
 1337 010e 0022     		movs	r2, #0
 1338 0110 FFF7FEFF 		bl	I2C_WaitOnFlagUntilTimeout
 1339 0114 031E     		subs	r3, r0, #0
 1340              		.loc 1 1409 8
 1341 0116 2FD0     		beq	.L55
1410:Drivers/STM32L0xx_HAL_Driver/Src/stm32l0xx_hal_i2c.c ****     {
1411:Drivers/STM32L0xx_HAL_Driver/Src/stm32l0xx_hal_i2c.c ****       /* Disable Address Acknowledge */
1412:Drivers/STM32L0xx_HAL_Driver/Src/stm32l0xx_hal_i2c.c ****       hi2c->Instance->CR2 |= I2C_CR2_NACK;
 1342              		.loc 1 1412 11
 1343 0118 FB68     		ldr	r3, [r7, #12]
 1344 011a 1B68     		ldr	r3, [r3]
 1345              		.loc 1 1412 27
 1346 011c 5A68     		ldr	r2, [r3, #4]
 1347              		.loc 1 1412 11
 1348 011e FB68     		ldr	r3, [r7, #12]
 1349 0120 1B68     		ldr	r3, [r3]
 1350              		.loc 1 1412 27
 1351 0122 8021     		movs	r1, #128
 1352 0124 0902     		lsls	r1, r1, #8
 1353 0126 0A43     		orrs	r2, r1
 1354 0128 5A60     		str	r2, [r3, #4]
1413:Drivers/STM32L0xx_HAL_Driver/Src/stm32l0xx_hal_i2c.c ****       return HAL_ERROR;
 1355              		.loc 1 1413 14
 1356 012a 0123     		movs	r3, #1
 1357 012c 77E0     		b	.L49
 1358              	.L57:
1414:Drivers/STM32L0xx_HAL_Driver/Src/stm32l0xx_hal_i2c.c ****     }
1415:Drivers/STM32L0xx_HAL_Driver/Src/stm32l0xx_hal_i2c.c **** 
1416:Drivers/STM32L0xx_HAL_Driver/Src/stm32l0xx_hal_i2c.c ****     while (hi2c->XferCount > 0U)
1417:Drivers/STM32L0xx_HAL_Driver/Src/stm32l0xx_hal_i2c.c ****     {
1418:Drivers/STM32L0xx_HAL_Driver/Src/stm32l0xx_hal_i2c.c ****       /* Wait until TXIS flag is set */
1419:Drivers/STM32L0xx_HAL_Driver/Src/stm32l0xx_hal_i2c.c ****       if (I2C_WaitOnTXISFlagUntilTimeout(hi2c, Timeout, tickstart) != HAL_OK)
 1359              		.loc 1 1419 11
 1360 012e 7A69     		ldr	r2, [r7, #20]
 1361 0130 3968     		ldr	r1, [r7]
 1362 0132 FB68     		ldr	r3, [r7, #12]
 1363 0134 1800     		movs	r0, r3
 1364 0136 FFF7FEFF 		bl	I2C_WaitOnTXISFlagUntilTimeout
 1365 013a 031E     		subs	r3, r0, #0
 1366              		.loc 1 1419 10
 1367 013c 0AD0     		beq	.L56
1420:Drivers/STM32L0xx_HAL_Driver/Src/stm32l0xx_hal_i2c.c ****       {
1421:Drivers/STM32L0xx_HAL_Driver/Src/stm32l0xx_hal_i2c.c ****         /* Disable Address Acknowledge */
1422:Drivers/STM32L0xx_HAL_Driver/Src/stm32l0xx_hal_i2c.c ****         hi2c->Instance->CR2 |= I2C_CR2_NACK;
 1368              		.loc 1 1422 13
 1369 013e FB68     		ldr	r3, [r7, #12]
 1370 0140 1B68     		ldr	r3, [r3]
 1371              		.loc 1 1422 29
 1372 0142 5A68     		ldr	r2, [r3, #4]
 1373              		.loc 1 1422 13
 1374 0144 FB68     		ldr	r3, [r7, #12]
 1375 0146 1B68     		ldr	r3, [r3]
 1376              		.loc 1 1422 29
 1377 0148 8021     		movs	r1, #128
ARM GAS  /var/folders/fs/dxwfnrqj18z860lwl3d6f5t00000gn/T//cc1liz9x.s 			page 50


 1378 014a 0902     		lsls	r1, r1, #8
 1379 014c 0A43     		orrs	r2, r1
 1380 014e 5A60     		str	r2, [r3, #4]
1423:Drivers/STM32L0xx_HAL_Driver/Src/stm32l0xx_hal_i2c.c ****         return HAL_ERROR;
 1381              		.loc 1 1423 16
 1382 0150 0123     		movs	r3, #1
 1383 0152 64E0     		b	.L49
 1384              	.L56:
1424:Drivers/STM32L0xx_HAL_Driver/Src/stm32l0xx_hal_i2c.c ****       }
1425:Drivers/STM32L0xx_HAL_Driver/Src/stm32l0xx_hal_i2c.c **** 
1426:Drivers/STM32L0xx_HAL_Driver/Src/stm32l0xx_hal_i2c.c ****       /* Write data to TXDR */
1427:Drivers/STM32L0xx_HAL_Driver/Src/stm32l0xx_hal_i2c.c ****       hi2c->Instance->TXDR = *hi2c->pBuffPtr;
 1385              		.loc 1 1427 35
 1386 0154 FB68     		ldr	r3, [r7, #12]
 1387 0156 5B6A     		ldr	r3, [r3, #36]
 1388              		.loc 1 1427 30
 1389 0158 1A78     		ldrb	r2, [r3]
 1390              		.loc 1 1427 11
 1391 015a FB68     		ldr	r3, [r7, #12]
 1392 015c 1B68     		ldr	r3, [r3]
 1393              		.loc 1 1427 28
 1394 015e 9A62     		str	r2, [r3, #40]
1428:Drivers/STM32L0xx_HAL_Driver/Src/stm32l0xx_hal_i2c.c **** 
1429:Drivers/STM32L0xx_HAL_Driver/Src/stm32l0xx_hal_i2c.c ****       /* Increment Buffer pointer */
1430:Drivers/STM32L0xx_HAL_Driver/Src/stm32l0xx_hal_i2c.c ****       hi2c->pBuffPtr++;
 1395              		.loc 1 1430 11
 1396 0160 FB68     		ldr	r3, [r7, #12]
 1397 0162 5B6A     		ldr	r3, [r3, #36]
 1398              		.loc 1 1430 21
 1399 0164 5A1C     		adds	r2, r3, #1
 1400 0166 FB68     		ldr	r3, [r7, #12]
 1401 0168 5A62     		str	r2, [r3, #36]
1431:Drivers/STM32L0xx_HAL_Driver/Src/stm32l0xx_hal_i2c.c **** 
1432:Drivers/STM32L0xx_HAL_Driver/Src/stm32l0xx_hal_i2c.c ****       hi2c->XferCount--;
 1402              		.loc 1 1432 11
 1403 016a FB68     		ldr	r3, [r7, #12]
 1404 016c 5B8D     		ldrh	r3, [r3, #42]
 1405 016e 9BB2     		uxth	r3, r3
 1406              		.loc 1 1432 22
 1407 0170 013B     		subs	r3, r3, #1
 1408 0172 9AB2     		uxth	r2, r3
 1409 0174 FB68     		ldr	r3, [r7, #12]
 1410 0176 5A85     		strh	r2, [r3, #42]
 1411              	.L55:
1416:Drivers/STM32L0xx_HAL_Driver/Src/stm32l0xx_hal_i2c.c ****     {
 1412              		.loc 1 1416 16
 1413 0178 FB68     		ldr	r3, [r7, #12]
 1414 017a 5B8D     		ldrh	r3, [r3, #42]
 1415 017c 9BB2     		uxth	r3, r3
1416:Drivers/STM32L0xx_HAL_Driver/Src/stm32l0xx_hal_i2c.c ****     {
 1416              		.loc 1 1416 11
 1417 017e 002B     		cmp	r3, #0
 1418 0180 D5D1     		bne	.L57
1433:Drivers/STM32L0xx_HAL_Driver/Src/stm32l0xx_hal_i2c.c ****     }
1434:Drivers/STM32L0xx_HAL_Driver/Src/stm32l0xx_hal_i2c.c **** 
1435:Drivers/STM32L0xx_HAL_Driver/Src/stm32l0xx_hal_i2c.c ****     /* Wait until STOP flag is set */
1436:Drivers/STM32L0xx_HAL_Driver/Src/stm32l0xx_hal_i2c.c ****     if (I2C_WaitOnSTOPFlagUntilTimeout(hi2c, Timeout, tickstart) != HAL_OK)
ARM GAS  /var/folders/fs/dxwfnrqj18z860lwl3d6f5t00000gn/T//cc1liz9x.s 			page 51


 1419              		.loc 1 1436 9
 1420 0182 7A69     		ldr	r2, [r7, #20]
 1421 0184 3968     		ldr	r1, [r7]
 1422 0186 FB68     		ldr	r3, [r7, #12]
 1423 0188 1800     		movs	r0, r3
 1424 018a FFF7FEFF 		bl	I2C_WaitOnSTOPFlagUntilTimeout
 1425 018e 031E     		subs	r3, r0, #0
 1426              		.loc 1 1436 8
 1427 0190 12D0     		beq	.L58
1437:Drivers/STM32L0xx_HAL_Driver/Src/stm32l0xx_hal_i2c.c ****     {
1438:Drivers/STM32L0xx_HAL_Driver/Src/stm32l0xx_hal_i2c.c ****       /* Disable Address Acknowledge */
1439:Drivers/STM32L0xx_HAL_Driver/Src/stm32l0xx_hal_i2c.c ****       hi2c->Instance->CR2 |= I2C_CR2_NACK;
 1428              		.loc 1 1439 11
 1429 0192 FB68     		ldr	r3, [r7, #12]
 1430 0194 1B68     		ldr	r3, [r3]
 1431              		.loc 1 1439 27
 1432 0196 5A68     		ldr	r2, [r3, #4]
 1433              		.loc 1 1439 11
 1434 0198 FB68     		ldr	r3, [r7, #12]
 1435 019a 1B68     		ldr	r3, [r3]
 1436              		.loc 1 1439 27
 1437 019c 8021     		movs	r1, #128
 1438 019e 0902     		lsls	r1, r1, #8
 1439 01a0 0A43     		orrs	r2, r1
 1440 01a2 5A60     		str	r2, [r3, #4]
1440:Drivers/STM32L0xx_HAL_Driver/Src/stm32l0xx_hal_i2c.c **** 
1441:Drivers/STM32L0xx_HAL_Driver/Src/stm32l0xx_hal_i2c.c ****       if (hi2c->ErrorCode == HAL_I2C_ERROR_AF)
 1441              		.loc 1 1441 15
 1442 01a4 FB68     		ldr	r3, [r7, #12]
 1443 01a6 5B6C     		ldr	r3, [r3, #68]
 1444              		.loc 1 1441 10
 1445 01a8 042B     		cmp	r3, #4
 1446 01aa 03D1     		bne	.L59
1442:Drivers/STM32L0xx_HAL_Driver/Src/stm32l0xx_hal_i2c.c ****       {
1443:Drivers/STM32L0xx_HAL_Driver/Src/stm32l0xx_hal_i2c.c ****         /* Normal use case for Transmitter mode */
1444:Drivers/STM32L0xx_HAL_Driver/Src/stm32l0xx_hal_i2c.c ****         /* A NACK is generated to confirm the end of transfer */
1445:Drivers/STM32L0xx_HAL_Driver/Src/stm32l0xx_hal_i2c.c ****         hi2c->ErrorCode = HAL_I2C_ERROR_NONE;
 1447              		.loc 1 1445 25
 1448 01ac FB68     		ldr	r3, [r7, #12]
 1449 01ae 0022     		movs	r2, #0
 1450 01b0 5A64     		str	r2, [r3, #68]
 1451 01b2 01E0     		b	.L58
 1452              	.L59:
1446:Drivers/STM32L0xx_HAL_Driver/Src/stm32l0xx_hal_i2c.c ****       }
1447:Drivers/STM32L0xx_HAL_Driver/Src/stm32l0xx_hal_i2c.c ****       else
1448:Drivers/STM32L0xx_HAL_Driver/Src/stm32l0xx_hal_i2c.c ****       {
1449:Drivers/STM32L0xx_HAL_Driver/Src/stm32l0xx_hal_i2c.c ****         return HAL_ERROR;
 1453              		.loc 1 1449 16
 1454 01b4 0123     		movs	r3, #1
 1455 01b6 32E0     		b	.L49
 1456              	.L58:
1450:Drivers/STM32L0xx_HAL_Driver/Src/stm32l0xx_hal_i2c.c ****       }
1451:Drivers/STM32L0xx_HAL_Driver/Src/stm32l0xx_hal_i2c.c ****     }
1452:Drivers/STM32L0xx_HAL_Driver/Src/stm32l0xx_hal_i2c.c **** 
1453:Drivers/STM32L0xx_HAL_Driver/Src/stm32l0xx_hal_i2c.c ****     /* Clear STOP flag */
1454:Drivers/STM32L0xx_HAL_Driver/Src/stm32l0xx_hal_i2c.c ****     __HAL_I2C_CLEAR_FLAG(hi2c, I2C_FLAG_STOPF);
 1457              		.loc 1 1454 5
ARM GAS  /var/folders/fs/dxwfnrqj18z860lwl3d6f5t00000gn/T//cc1liz9x.s 			page 52


 1458 01b8 FB68     		ldr	r3, [r7, #12]
 1459 01ba 1B68     		ldr	r3, [r3]
 1460 01bc 2022     		movs	r2, #32
 1461 01be DA61     		str	r2, [r3, #28]
1455:Drivers/STM32L0xx_HAL_Driver/Src/stm32l0xx_hal_i2c.c **** 
1456:Drivers/STM32L0xx_HAL_Driver/Src/stm32l0xx_hal_i2c.c ****     /* Wait until BUSY flag is reset */
1457:Drivers/STM32L0xx_HAL_Driver/Src/stm32l0xx_hal_i2c.c ****     if (I2C_WaitOnFlagUntilTimeout(hi2c, I2C_FLAG_BUSY, SET, Timeout, tickstart) != HAL_OK)
 1462              		.loc 1 1457 9
 1463 01c0 3A68     		ldr	r2, [r7]
 1464 01c2 8023     		movs	r3, #128
 1465 01c4 1902     		lsls	r1, r3, #8
 1466 01c6 F868     		ldr	r0, [r7, #12]
 1467 01c8 7B69     		ldr	r3, [r7, #20]
 1468 01ca 0093     		str	r3, [sp]
 1469 01cc 1300     		movs	r3, r2
 1470 01ce 0122     		movs	r2, #1
 1471 01d0 FFF7FEFF 		bl	I2C_WaitOnFlagUntilTimeout
 1472 01d4 031E     		subs	r3, r0, #0
 1473              		.loc 1 1457 8
 1474 01d6 0AD0     		beq	.L60
1458:Drivers/STM32L0xx_HAL_Driver/Src/stm32l0xx_hal_i2c.c ****     {
1459:Drivers/STM32L0xx_HAL_Driver/Src/stm32l0xx_hal_i2c.c ****       /* Disable Address Acknowledge */
1460:Drivers/STM32L0xx_HAL_Driver/Src/stm32l0xx_hal_i2c.c ****       hi2c->Instance->CR2 |= I2C_CR2_NACK;
 1475              		.loc 1 1460 11
 1476 01d8 FB68     		ldr	r3, [r7, #12]
 1477 01da 1B68     		ldr	r3, [r3]
 1478              		.loc 1 1460 27
 1479 01dc 5A68     		ldr	r2, [r3, #4]
 1480              		.loc 1 1460 11
 1481 01de FB68     		ldr	r3, [r7, #12]
 1482 01e0 1B68     		ldr	r3, [r3]
 1483              		.loc 1 1460 27
 1484 01e2 8021     		movs	r1, #128
 1485 01e4 0902     		lsls	r1, r1, #8
 1486 01e6 0A43     		orrs	r2, r1
 1487 01e8 5A60     		str	r2, [r3, #4]
1461:Drivers/STM32L0xx_HAL_Driver/Src/stm32l0xx_hal_i2c.c ****       return HAL_ERROR;
 1488              		.loc 1 1461 14
 1489 01ea 0123     		movs	r3, #1
 1490 01ec 17E0     		b	.L49
 1491              	.L60:
1462:Drivers/STM32L0xx_HAL_Driver/Src/stm32l0xx_hal_i2c.c ****     }
1463:Drivers/STM32L0xx_HAL_Driver/Src/stm32l0xx_hal_i2c.c **** 
1464:Drivers/STM32L0xx_HAL_Driver/Src/stm32l0xx_hal_i2c.c ****     /* Disable Address Acknowledge */
1465:Drivers/STM32L0xx_HAL_Driver/Src/stm32l0xx_hal_i2c.c ****     hi2c->Instance->CR2 |= I2C_CR2_NACK;
 1492              		.loc 1 1465 9
 1493 01ee FB68     		ldr	r3, [r7, #12]
 1494 01f0 1B68     		ldr	r3, [r3]
 1495              		.loc 1 1465 25
 1496 01f2 5A68     		ldr	r2, [r3, #4]
 1497              		.loc 1 1465 9
 1498 01f4 FB68     		ldr	r3, [r7, #12]
 1499 01f6 1B68     		ldr	r3, [r3]
 1500              		.loc 1 1465 25
 1501 01f8 8021     		movs	r1, #128
 1502 01fa 0902     		lsls	r1, r1, #8
 1503 01fc 0A43     		orrs	r2, r1
ARM GAS  /var/folders/fs/dxwfnrqj18z860lwl3d6f5t00000gn/T//cc1liz9x.s 			page 53


 1504 01fe 5A60     		str	r2, [r3, #4]
1466:Drivers/STM32L0xx_HAL_Driver/Src/stm32l0xx_hal_i2c.c **** 
1467:Drivers/STM32L0xx_HAL_Driver/Src/stm32l0xx_hal_i2c.c ****     hi2c->State = HAL_I2C_STATE_READY;
 1505              		.loc 1 1467 17
 1506 0200 FB68     		ldr	r3, [r7, #12]
 1507 0202 4122     		movs	r2, #65
 1508 0204 2021     		movs	r1, #32
 1509 0206 9954     		strb	r1, [r3, r2]
1468:Drivers/STM32L0xx_HAL_Driver/Src/stm32l0xx_hal_i2c.c ****     hi2c->Mode  = HAL_I2C_MODE_NONE;
 1510              		.loc 1 1468 17
 1511 0208 FB68     		ldr	r3, [r7, #12]
 1512 020a 4222     		movs	r2, #66
 1513 020c 0021     		movs	r1, #0
 1514 020e 9954     		strb	r1, [r3, r2]
1469:Drivers/STM32L0xx_HAL_Driver/Src/stm32l0xx_hal_i2c.c **** 
1470:Drivers/STM32L0xx_HAL_Driver/Src/stm32l0xx_hal_i2c.c ****     /* Process Unlocked */
1471:Drivers/STM32L0xx_HAL_Driver/Src/stm32l0xx_hal_i2c.c ****     __HAL_UNLOCK(hi2c);
 1515              		.loc 1 1471 5
 1516 0210 FB68     		ldr	r3, [r7, #12]
 1517 0212 4022     		movs	r2, #64
 1518 0214 0021     		movs	r1, #0
 1519 0216 9954     		strb	r1, [r3, r2]
1472:Drivers/STM32L0xx_HAL_Driver/Src/stm32l0xx_hal_i2c.c **** 
1473:Drivers/STM32L0xx_HAL_Driver/Src/stm32l0xx_hal_i2c.c ****     return HAL_OK;
 1520              		.loc 1 1473 12
 1521 0218 0023     		movs	r3, #0
 1522 021a 00E0     		b	.L49
 1523              	.L46:
1474:Drivers/STM32L0xx_HAL_Driver/Src/stm32l0xx_hal_i2c.c ****   }
1475:Drivers/STM32L0xx_HAL_Driver/Src/stm32l0xx_hal_i2c.c ****   else
1476:Drivers/STM32L0xx_HAL_Driver/Src/stm32l0xx_hal_i2c.c ****   {
1477:Drivers/STM32L0xx_HAL_Driver/Src/stm32l0xx_hal_i2c.c ****     return HAL_BUSY;
 1524              		.loc 1 1477 12
 1525 021c 0223     		movs	r3, #2
 1526              	.L49:
1478:Drivers/STM32L0xx_HAL_Driver/Src/stm32l0xx_hal_i2c.c ****   }
1479:Drivers/STM32L0xx_HAL_Driver/Src/stm32l0xx_hal_i2c.c **** }
 1527              		.loc 1 1479 1
 1528 021e 1800     		movs	r0, r3
 1529 0220 BD46     		mov	sp, r7
 1530 0222 06B0     		add	sp, sp, #24
 1531              		@ sp needed
 1532 0224 80BD     		pop	{r7, pc}
 1533              	.L62:
 1534 0226 C046     		.align	2
 1535              	.L61:
 1536 0228 FF7FFFFF 		.word	-32769
 1537              		.cfi_endproc
 1538              	.LFE53:
 1540              		.section	.text.HAL_I2C_Slave_Receive,"ax",%progbits
 1541              		.align	1
 1542              		.global	HAL_I2C_Slave_Receive
 1543              		.syntax unified
 1544              		.code	16
 1545              		.thumb_func
 1546              		.fpu softvfp
 1548              	HAL_I2C_Slave_Receive:
ARM GAS  /var/folders/fs/dxwfnrqj18z860lwl3d6f5t00000gn/T//cc1liz9x.s 			page 54


 1549              	.LFB54:
1480:Drivers/STM32L0xx_HAL_Driver/Src/stm32l0xx_hal_i2c.c **** 
1481:Drivers/STM32L0xx_HAL_Driver/Src/stm32l0xx_hal_i2c.c **** /**
1482:Drivers/STM32L0xx_HAL_Driver/Src/stm32l0xx_hal_i2c.c ****   * @brief  Receive in slave mode an amount of data in blocking mode
1483:Drivers/STM32L0xx_HAL_Driver/Src/stm32l0xx_hal_i2c.c ****   * @param  hi2c Pointer to a I2C_HandleTypeDef structure that contains
1484:Drivers/STM32L0xx_HAL_Driver/Src/stm32l0xx_hal_i2c.c ****   *                the configuration information for the specified I2C.
1485:Drivers/STM32L0xx_HAL_Driver/Src/stm32l0xx_hal_i2c.c ****   * @param  pData Pointer to data buffer
1486:Drivers/STM32L0xx_HAL_Driver/Src/stm32l0xx_hal_i2c.c ****   * @param  Size Amount of data to be sent
1487:Drivers/STM32L0xx_HAL_Driver/Src/stm32l0xx_hal_i2c.c ****   * @param  Timeout Timeout duration
1488:Drivers/STM32L0xx_HAL_Driver/Src/stm32l0xx_hal_i2c.c ****   * @retval HAL status
1489:Drivers/STM32L0xx_HAL_Driver/Src/stm32l0xx_hal_i2c.c ****   */
1490:Drivers/STM32L0xx_HAL_Driver/Src/stm32l0xx_hal_i2c.c **** HAL_StatusTypeDef HAL_I2C_Slave_Receive(I2C_HandleTypeDef *hi2c, uint8_t *pData, uint16_t Size,
1491:Drivers/STM32L0xx_HAL_Driver/Src/stm32l0xx_hal_i2c.c ****                                         uint32_t Timeout)
1492:Drivers/STM32L0xx_HAL_Driver/Src/stm32l0xx_hal_i2c.c **** {
 1550              		.loc 1 1492 1
 1551              		.cfi_startproc
 1552              		@ args = 0, pretend = 0, frame = 24
 1553              		@ frame_needed = 1, uses_anonymous_args = 0
 1554 0000 80B5     		push	{r7, lr}
 1555              	.LCFI21:
 1556              		.cfi_def_cfa_offset 8
 1557              		.cfi_offset 7, -8
 1558              		.cfi_offset 14, -4
 1559 0002 88B0     		sub	sp, sp, #32
 1560              	.LCFI22:
 1561              		.cfi_def_cfa_offset 40
 1562 0004 02AF     		add	r7, sp, #8
 1563              	.LCFI23:
 1564              		.cfi_def_cfa 7, 32
 1565 0006 F860     		str	r0, [r7, #12]
 1566 0008 B960     		str	r1, [r7, #8]
 1567 000a 3B60     		str	r3, [r7]
 1568 000c BB1D     		adds	r3, r7, #6
 1569 000e 1A80     		strh	r2, [r3]
1493:Drivers/STM32L0xx_HAL_Driver/Src/stm32l0xx_hal_i2c.c ****   uint32_t tickstart;
1494:Drivers/STM32L0xx_HAL_Driver/Src/stm32l0xx_hal_i2c.c **** 
1495:Drivers/STM32L0xx_HAL_Driver/Src/stm32l0xx_hal_i2c.c ****   if (hi2c->State == HAL_I2C_STATE_READY)
 1570              		.loc 1 1495 11
 1571 0010 FB68     		ldr	r3, [r7, #12]
 1572 0012 4122     		movs	r2, #65
 1573 0014 9B5C     		ldrb	r3, [r3, r2]
 1574 0016 DBB2     		uxtb	r3, r3
 1575              		.loc 1 1495 6
 1576 0018 202B     		cmp	r3, #32
 1577 001a 00D0     		beq	.LCB1294
 1578 001c F3E0     		b	.L64	@long jump
 1579              	.LCB1294:
1496:Drivers/STM32L0xx_HAL_Driver/Src/stm32l0xx_hal_i2c.c ****   {
1497:Drivers/STM32L0xx_HAL_Driver/Src/stm32l0xx_hal_i2c.c ****     if ((pData == NULL) || (Size == 0U))
 1580              		.loc 1 1497 8
 1581 001e BB68     		ldr	r3, [r7, #8]
 1582 0020 002B     		cmp	r3, #0
 1583 0022 03D0     		beq	.L65
 1584              		.loc 1 1497 25 discriminator 1
 1585 0024 BB1D     		adds	r3, r7, #6
 1586 0026 1B88     		ldrh	r3, [r3]
 1587 0028 002B     		cmp	r3, #0
ARM GAS  /var/folders/fs/dxwfnrqj18z860lwl3d6f5t00000gn/T//cc1liz9x.s 			page 55


 1588 002a 05D1     		bne	.L66
 1589              	.L65:
1498:Drivers/STM32L0xx_HAL_Driver/Src/stm32l0xx_hal_i2c.c ****     {
1499:Drivers/STM32L0xx_HAL_Driver/Src/stm32l0xx_hal_i2c.c ****       hi2c->ErrorCode = HAL_I2C_ERROR_INVALID_PARAM;
 1590              		.loc 1 1499 23
 1591 002c FB68     		ldr	r3, [r7, #12]
 1592 002e 8022     		movs	r2, #128
 1593 0030 9200     		lsls	r2, r2, #2
 1594 0032 5A64     		str	r2, [r3, #68]
1500:Drivers/STM32L0xx_HAL_Driver/Src/stm32l0xx_hal_i2c.c ****       return  HAL_ERROR;
 1595              		.loc 1 1500 15
 1596 0034 0123     		movs	r3, #1
 1597 0036 E7E0     		b	.L67
 1598              	.L66:
1501:Drivers/STM32L0xx_HAL_Driver/Src/stm32l0xx_hal_i2c.c ****     }
1502:Drivers/STM32L0xx_HAL_Driver/Src/stm32l0xx_hal_i2c.c ****     /* Process Locked */
1503:Drivers/STM32L0xx_HAL_Driver/Src/stm32l0xx_hal_i2c.c ****     __HAL_LOCK(hi2c);
 1599              		.loc 1 1503 5
 1600 0038 FB68     		ldr	r3, [r7, #12]
 1601 003a 4022     		movs	r2, #64
 1602 003c 9B5C     		ldrb	r3, [r3, r2]
 1603 003e 012B     		cmp	r3, #1
 1604 0040 01D1     		bne	.L68
 1605              		.loc 1 1503 5 is_stmt 0 discriminator 1
 1606 0042 0223     		movs	r3, #2
 1607 0044 E0E0     		b	.L67
 1608              	.L68:
 1609              		.loc 1 1503 5 discriminator 2
 1610 0046 FB68     		ldr	r3, [r7, #12]
 1611 0048 4022     		movs	r2, #64
 1612 004a 0121     		movs	r1, #1
 1613 004c 9954     		strb	r1, [r3, r2]
1504:Drivers/STM32L0xx_HAL_Driver/Src/stm32l0xx_hal_i2c.c **** 
1505:Drivers/STM32L0xx_HAL_Driver/Src/stm32l0xx_hal_i2c.c ****     /* Init tickstart for timeout management*/
1506:Drivers/STM32L0xx_HAL_Driver/Src/stm32l0xx_hal_i2c.c ****     tickstart = HAL_GetTick();
 1614              		.loc 1 1506 17 is_stmt 1 discriminator 2
 1615 004e FFF7FEFF 		bl	HAL_GetTick
 1616 0052 0300     		movs	r3, r0
 1617 0054 7B61     		str	r3, [r7, #20]
1507:Drivers/STM32L0xx_HAL_Driver/Src/stm32l0xx_hal_i2c.c **** 
1508:Drivers/STM32L0xx_HAL_Driver/Src/stm32l0xx_hal_i2c.c ****     hi2c->State     = HAL_I2C_STATE_BUSY_RX;
 1618              		.loc 1 1508 21 discriminator 2
 1619 0056 FB68     		ldr	r3, [r7, #12]
 1620 0058 4122     		movs	r2, #65
 1621 005a 2221     		movs	r1, #34
 1622 005c 9954     		strb	r1, [r3, r2]
1509:Drivers/STM32L0xx_HAL_Driver/Src/stm32l0xx_hal_i2c.c ****     hi2c->Mode      = HAL_I2C_MODE_SLAVE;
 1623              		.loc 1 1509 21 discriminator 2
 1624 005e FB68     		ldr	r3, [r7, #12]
 1625 0060 4222     		movs	r2, #66
 1626 0062 2021     		movs	r1, #32
 1627 0064 9954     		strb	r1, [r3, r2]
1510:Drivers/STM32L0xx_HAL_Driver/Src/stm32l0xx_hal_i2c.c ****     hi2c->ErrorCode = HAL_I2C_ERROR_NONE;
 1628              		.loc 1 1510 21 discriminator 2
 1629 0066 FB68     		ldr	r3, [r7, #12]
 1630 0068 0022     		movs	r2, #0
 1631 006a 5A64     		str	r2, [r3, #68]
ARM GAS  /var/folders/fs/dxwfnrqj18z860lwl3d6f5t00000gn/T//cc1liz9x.s 			page 56


1511:Drivers/STM32L0xx_HAL_Driver/Src/stm32l0xx_hal_i2c.c **** 
1512:Drivers/STM32L0xx_HAL_Driver/Src/stm32l0xx_hal_i2c.c ****     /* Prepare transfer parameters */
1513:Drivers/STM32L0xx_HAL_Driver/Src/stm32l0xx_hal_i2c.c ****     hi2c->pBuffPtr  = pData;
 1632              		.loc 1 1513 21 discriminator 2
 1633 006c FB68     		ldr	r3, [r7, #12]
 1634 006e BA68     		ldr	r2, [r7, #8]
 1635 0070 5A62     		str	r2, [r3, #36]
1514:Drivers/STM32L0xx_HAL_Driver/Src/stm32l0xx_hal_i2c.c ****     hi2c->XferCount = Size;
 1636              		.loc 1 1514 21 discriminator 2
 1637 0072 FB68     		ldr	r3, [r7, #12]
 1638 0074 BA1D     		adds	r2, r7, #6
 1639 0076 1288     		ldrh	r2, [r2]
 1640 0078 5A85     		strh	r2, [r3, #42]
1515:Drivers/STM32L0xx_HAL_Driver/Src/stm32l0xx_hal_i2c.c ****     hi2c->XferISR   = NULL;
 1641              		.loc 1 1515 21 discriminator 2
 1642 007a FB68     		ldr	r3, [r7, #12]
 1643 007c 0022     		movs	r2, #0
 1644 007e 5A63     		str	r2, [r3, #52]
1516:Drivers/STM32L0xx_HAL_Driver/Src/stm32l0xx_hal_i2c.c **** 
1517:Drivers/STM32L0xx_HAL_Driver/Src/stm32l0xx_hal_i2c.c ****     /* Enable Address Acknowledge */
1518:Drivers/STM32L0xx_HAL_Driver/Src/stm32l0xx_hal_i2c.c ****     hi2c->Instance->CR2 &= ~I2C_CR2_NACK;
 1645              		.loc 1 1518 9 discriminator 2
 1646 0080 FB68     		ldr	r3, [r7, #12]
 1647 0082 1B68     		ldr	r3, [r3]
 1648              		.loc 1 1518 25 discriminator 2
 1649 0084 5A68     		ldr	r2, [r3, #4]
 1650              		.loc 1 1518 9 discriminator 2
 1651 0086 FB68     		ldr	r3, [r7, #12]
 1652 0088 1B68     		ldr	r3, [r3]
 1653              		.loc 1 1518 25 discriminator 2
 1654 008a 6149     		ldr	r1, .L77
 1655 008c 0A40     		ands	r2, r1
 1656 008e 5A60     		str	r2, [r3, #4]
1519:Drivers/STM32L0xx_HAL_Driver/Src/stm32l0xx_hal_i2c.c **** 
1520:Drivers/STM32L0xx_HAL_Driver/Src/stm32l0xx_hal_i2c.c ****     /* Wait until ADDR flag is set */
1521:Drivers/STM32L0xx_HAL_Driver/Src/stm32l0xx_hal_i2c.c ****     if (I2C_WaitOnFlagUntilTimeout(hi2c, I2C_FLAG_ADDR, RESET, Timeout, tickstart) != HAL_OK)
 1657              		.loc 1 1521 9 discriminator 2
 1658 0090 3A68     		ldr	r2, [r7]
 1659 0092 F868     		ldr	r0, [r7, #12]
 1660 0094 7B69     		ldr	r3, [r7, #20]
 1661 0096 0093     		str	r3, [sp]
 1662 0098 1300     		movs	r3, r2
 1663 009a 0022     		movs	r2, #0
 1664 009c 0821     		movs	r1, #8
 1665 009e FFF7FEFF 		bl	I2C_WaitOnFlagUntilTimeout
 1666 00a2 031E     		subs	r3, r0, #0
 1667              		.loc 1 1521 8 discriminator 2
 1668 00a4 0AD0     		beq	.L69
1522:Drivers/STM32L0xx_HAL_Driver/Src/stm32l0xx_hal_i2c.c ****     {
1523:Drivers/STM32L0xx_HAL_Driver/Src/stm32l0xx_hal_i2c.c ****       /* Disable Address Acknowledge */
1524:Drivers/STM32L0xx_HAL_Driver/Src/stm32l0xx_hal_i2c.c ****       hi2c->Instance->CR2 |= I2C_CR2_NACK;
 1669              		.loc 1 1524 11
 1670 00a6 FB68     		ldr	r3, [r7, #12]
 1671 00a8 1B68     		ldr	r3, [r3]
 1672              		.loc 1 1524 27
 1673 00aa 5A68     		ldr	r2, [r3, #4]
 1674              		.loc 1 1524 11
ARM GAS  /var/folders/fs/dxwfnrqj18z860lwl3d6f5t00000gn/T//cc1liz9x.s 			page 57


 1675 00ac FB68     		ldr	r3, [r7, #12]
 1676 00ae 1B68     		ldr	r3, [r3]
 1677              		.loc 1 1524 27
 1678 00b0 8021     		movs	r1, #128
 1679 00b2 0902     		lsls	r1, r1, #8
 1680 00b4 0A43     		orrs	r2, r1
 1681 00b6 5A60     		str	r2, [r3, #4]
1525:Drivers/STM32L0xx_HAL_Driver/Src/stm32l0xx_hal_i2c.c ****       return HAL_ERROR;
 1682              		.loc 1 1525 14
 1683 00b8 0123     		movs	r3, #1
 1684 00ba A5E0     		b	.L67
 1685              	.L69:
1526:Drivers/STM32L0xx_HAL_Driver/Src/stm32l0xx_hal_i2c.c ****     }
1527:Drivers/STM32L0xx_HAL_Driver/Src/stm32l0xx_hal_i2c.c **** 
1528:Drivers/STM32L0xx_HAL_Driver/Src/stm32l0xx_hal_i2c.c ****     /* Clear ADDR flag */
1529:Drivers/STM32L0xx_HAL_Driver/Src/stm32l0xx_hal_i2c.c ****     __HAL_I2C_CLEAR_FLAG(hi2c, I2C_FLAG_ADDR);
 1686              		.loc 1 1529 5
 1687 00bc FB68     		ldr	r3, [r7, #12]
 1688 00be 1B68     		ldr	r3, [r3]
 1689 00c0 0822     		movs	r2, #8
 1690 00c2 DA61     		str	r2, [r3, #28]
1530:Drivers/STM32L0xx_HAL_Driver/Src/stm32l0xx_hal_i2c.c **** 
1531:Drivers/STM32L0xx_HAL_Driver/Src/stm32l0xx_hal_i2c.c ****     /* Wait until DIR flag is reset Receiver mode */
1532:Drivers/STM32L0xx_HAL_Driver/Src/stm32l0xx_hal_i2c.c ****     if (I2C_WaitOnFlagUntilTimeout(hi2c, I2C_FLAG_DIR, SET, Timeout, tickstart) != HAL_OK)
 1691              		.loc 1 1532 9
 1692 00c4 3A68     		ldr	r2, [r7]
 1693 00c6 8023     		movs	r3, #128
 1694 00c8 5902     		lsls	r1, r3, #9
 1695 00ca F868     		ldr	r0, [r7, #12]
 1696 00cc 7B69     		ldr	r3, [r7, #20]
 1697 00ce 0093     		str	r3, [sp]
 1698 00d0 1300     		movs	r3, r2
 1699 00d2 0122     		movs	r2, #1
 1700 00d4 FFF7FEFF 		bl	I2C_WaitOnFlagUntilTimeout
 1701 00d8 031E     		subs	r3, r0, #0
 1702              		.loc 1 1532 8
 1703 00da 4AD0     		beq	.L71
1533:Drivers/STM32L0xx_HAL_Driver/Src/stm32l0xx_hal_i2c.c ****     {
1534:Drivers/STM32L0xx_HAL_Driver/Src/stm32l0xx_hal_i2c.c ****       /* Disable Address Acknowledge */
1535:Drivers/STM32L0xx_HAL_Driver/Src/stm32l0xx_hal_i2c.c ****       hi2c->Instance->CR2 |= I2C_CR2_NACK;
 1704              		.loc 1 1535 11
 1705 00dc FB68     		ldr	r3, [r7, #12]
 1706 00de 1B68     		ldr	r3, [r3]
 1707              		.loc 1 1535 27
 1708 00e0 5A68     		ldr	r2, [r3, #4]
 1709              		.loc 1 1535 11
 1710 00e2 FB68     		ldr	r3, [r7, #12]
 1711 00e4 1B68     		ldr	r3, [r3]
 1712              		.loc 1 1535 27
 1713 00e6 8021     		movs	r1, #128
 1714 00e8 0902     		lsls	r1, r1, #8
 1715 00ea 0A43     		orrs	r2, r1
 1716 00ec 5A60     		str	r2, [r3, #4]
1536:Drivers/STM32L0xx_HAL_Driver/Src/stm32l0xx_hal_i2c.c ****       return HAL_ERROR;
 1717              		.loc 1 1536 14
 1718 00ee 0123     		movs	r3, #1
 1719 00f0 8AE0     		b	.L67
ARM GAS  /var/folders/fs/dxwfnrqj18z860lwl3d6f5t00000gn/T//cc1liz9x.s 			page 58


 1720              	.L74:
1537:Drivers/STM32L0xx_HAL_Driver/Src/stm32l0xx_hal_i2c.c ****     }
1538:Drivers/STM32L0xx_HAL_Driver/Src/stm32l0xx_hal_i2c.c **** 
1539:Drivers/STM32L0xx_HAL_Driver/Src/stm32l0xx_hal_i2c.c ****     while (hi2c->XferCount > 0U)
1540:Drivers/STM32L0xx_HAL_Driver/Src/stm32l0xx_hal_i2c.c ****     {
1541:Drivers/STM32L0xx_HAL_Driver/Src/stm32l0xx_hal_i2c.c ****       /* Wait until RXNE flag is set */
1542:Drivers/STM32L0xx_HAL_Driver/Src/stm32l0xx_hal_i2c.c ****       if (I2C_WaitOnRXNEFlagUntilTimeout(hi2c, Timeout, tickstart) != HAL_OK)
 1721              		.loc 1 1542 11
 1722 00f2 7A69     		ldr	r2, [r7, #20]
 1723 00f4 3968     		ldr	r1, [r7]
 1724 00f6 FB68     		ldr	r3, [r7, #12]
 1725 00f8 1800     		movs	r0, r3
 1726 00fa FFF7FEFF 		bl	I2C_WaitOnRXNEFlagUntilTimeout
 1727 00fe 031E     		subs	r3, r0, #0
 1728              		.loc 1 1542 10
 1729 0100 24D0     		beq	.L72
1543:Drivers/STM32L0xx_HAL_Driver/Src/stm32l0xx_hal_i2c.c ****       {
1544:Drivers/STM32L0xx_HAL_Driver/Src/stm32l0xx_hal_i2c.c ****         /* Disable Address Acknowledge */
1545:Drivers/STM32L0xx_HAL_Driver/Src/stm32l0xx_hal_i2c.c ****         hi2c->Instance->CR2 |= I2C_CR2_NACK;
 1730              		.loc 1 1545 13
 1731 0102 FB68     		ldr	r3, [r7, #12]
 1732 0104 1B68     		ldr	r3, [r3]
 1733              		.loc 1 1545 29
 1734 0106 5A68     		ldr	r2, [r3, #4]
 1735              		.loc 1 1545 13
 1736 0108 FB68     		ldr	r3, [r7, #12]
 1737 010a 1B68     		ldr	r3, [r3]
 1738              		.loc 1 1545 29
 1739 010c 8021     		movs	r1, #128
 1740 010e 0902     		lsls	r1, r1, #8
 1741 0110 0A43     		orrs	r2, r1
 1742 0112 5A60     		str	r2, [r3, #4]
1546:Drivers/STM32L0xx_HAL_Driver/Src/stm32l0xx_hal_i2c.c **** 
1547:Drivers/STM32L0xx_HAL_Driver/Src/stm32l0xx_hal_i2c.c ****         /* Store Last receive data if any */
1548:Drivers/STM32L0xx_HAL_Driver/Src/stm32l0xx_hal_i2c.c ****         if (__HAL_I2C_GET_FLAG(hi2c, I2C_FLAG_RXNE) == SET)
 1743              		.loc 1 1548 13
 1744 0114 FB68     		ldr	r3, [r7, #12]
 1745 0116 1B68     		ldr	r3, [r3]
 1746 0118 9B69     		ldr	r3, [r3, #24]
 1747 011a 0422     		movs	r2, #4
 1748 011c 1340     		ands	r3, r2
 1749              		.loc 1 1548 12
 1750 011e 042B     		cmp	r3, #4
 1751 0120 12D1     		bne	.L73
1549:Drivers/STM32L0xx_HAL_Driver/Src/stm32l0xx_hal_i2c.c ****         {
1550:Drivers/STM32L0xx_HAL_Driver/Src/stm32l0xx_hal_i2c.c ****           /* Read data from RXDR */
1551:Drivers/STM32L0xx_HAL_Driver/Src/stm32l0xx_hal_i2c.c ****           *hi2c->pBuffPtr = (uint8_t)hi2c->Instance->RXDR;
 1752              		.loc 1 1551 42
 1753 0122 FB68     		ldr	r3, [r7, #12]
 1754 0124 1B68     		ldr	r3, [r3]
 1755              		.loc 1 1551 52
 1756 0126 5A6A     		ldr	r2, [r3, #36]
 1757              		.loc 1 1551 16
 1758 0128 FB68     		ldr	r3, [r7, #12]
 1759 012a 5B6A     		ldr	r3, [r3, #36]
 1760              		.loc 1 1551 29
 1761 012c D2B2     		uxtb	r2, r2
ARM GAS  /var/folders/fs/dxwfnrqj18z860lwl3d6f5t00000gn/T//cc1liz9x.s 			page 59


 1762              		.loc 1 1551 27
 1763 012e 1A70     		strb	r2, [r3]
1552:Drivers/STM32L0xx_HAL_Driver/Src/stm32l0xx_hal_i2c.c **** 
1553:Drivers/STM32L0xx_HAL_Driver/Src/stm32l0xx_hal_i2c.c ****           /* Increment Buffer pointer */
1554:Drivers/STM32L0xx_HAL_Driver/Src/stm32l0xx_hal_i2c.c ****           hi2c->pBuffPtr++;
 1764              		.loc 1 1554 15
 1765 0130 FB68     		ldr	r3, [r7, #12]
 1766 0132 5B6A     		ldr	r3, [r3, #36]
 1767              		.loc 1 1554 25
 1768 0134 5A1C     		adds	r2, r3, #1
 1769 0136 FB68     		ldr	r3, [r7, #12]
 1770 0138 5A62     		str	r2, [r3, #36]
1555:Drivers/STM32L0xx_HAL_Driver/Src/stm32l0xx_hal_i2c.c **** 
1556:Drivers/STM32L0xx_HAL_Driver/Src/stm32l0xx_hal_i2c.c ****           hi2c->XferCount--;
 1771              		.loc 1 1556 15
 1772 013a FB68     		ldr	r3, [r7, #12]
 1773 013c 5B8D     		ldrh	r3, [r3, #42]
 1774 013e 9BB2     		uxth	r3, r3
 1775              		.loc 1 1556 26
 1776 0140 013B     		subs	r3, r3, #1
 1777 0142 9AB2     		uxth	r2, r3
 1778 0144 FB68     		ldr	r3, [r7, #12]
 1779 0146 5A85     		strh	r2, [r3, #42]
 1780              	.L73:
1557:Drivers/STM32L0xx_HAL_Driver/Src/stm32l0xx_hal_i2c.c ****         }
1558:Drivers/STM32L0xx_HAL_Driver/Src/stm32l0xx_hal_i2c.c **** 
1559:Drivers/STM32L0xx_HAL_Driver/Src/stm32l0xx_hal_i2c.c ****         return HAL_ERROR;
 1781              		.loc 1 1559 16
 1782 0148 0123     		movs	r3, #1
 1783 014a 5DE0     		b	.L67
 1784              	.L72:
1560:Drivers/STM32L0xx_HAL_Driver/Src/stm32l0xx_hal_i2c.c ****       }
1561:Drivers/STM32L0xx_HAL_Driver/Src/stm32l0xx_hal_i2c.c **** 
1562:Drivers/STM32L0xx_HAL_Driver/Src/stm32l0xx_hal_i2c.c ****       /* Read data from RXDR */
1563:Drivers/STM32L0xx_HAL_Driver/Src/stm32l0xx_hal_i2c.c ****       *hi2c->pBuffPtr = (uint8_t)hi2c->Instance->RXDR;
 1785              		.loc 1 1563 38
 1786 014c FB68     		ldr	r3, [r7, #12]
 1787 014e 1B68     		ldr	r3, [r3]
 1788              		.loc 1 1563 48
 1789 0150 5A6A     		ldr	r2, [r3, #36]
 1790              		.loc 1 1563 12
 1791 0152 FB68     		ldr	r3, [r7, #12]
 1792 0154 5B6A     		ldr	r3, [r3, #36]
 1793              		.loc 1 1563 25
 1794 0156 D2B2     		uxtb	r2, r2
 1795              		.loc 1 1563 23
 1796 0158 1A70     		strb	r2, [r3]
1564:Drivers/STM32L0xx_HAL_Driver/Src/stm32l0xx_hal_i2c.c **** 
1565:Drivers/STM32L0xx_HAL_Driver/Src/stm32l0xx_hal_i2c.c ****       /* Increment Buffer pointer */
1566:Drivers/STM32L0xx_HAL_Driver/Src/stm32l0xx_hal_i2c.c ****       hi2c->pBuffPtr++;
 1797              		.loc 1 1566 11
 1798 015a FB68     		ldr	r3, [r7, #12]
 1799 015c 5B6A     		ldr	r3, [r3, #36]
 1800              		.loc 1 1566 21
 1801 015e 5A1C     		adds	r2, r3, #1
 1802 0160 FB68     		ldr	r3, [r7, #12]
 1803 0162 5A62     		str	r2, [r3, #36]
ARM GAS  /var/folders/fs/dxwfnrqj18z860lwl3d6f5t00000gn/T//cc1liz9x.s 			page 60


1567:Drivers/STM32L0xx_HAL_Driver/Src/stm32l0xx_hal_i2c.c **** 
1568:Drivers/STM32L0xx_HAL_Driver/Src/stm32l0xx_hal_i2c.c ****       hi2c->XferCount--;
 1804              		.loc 1 1568 11
 1805 0164 FB68     		ldr	r3, [r7, #12]
 1806 0166 5B8D     		ldrh	r3, [r3, #42]
 1807 0168 9BB2     		uxth	r3, r3
 1808              		.loc 1 1568 22
 1809 016a 013B     		subs	r3, r3, #1
 1810 016c 9AB2     		uxth	r2, r3
 1811 016e FB68     		ldr	r3, [r7, #12]
 1812 0170 5A85     		strh	r2, [r3, #42]
 1813              	.L71:
1539:Drivers/STM32L0xx_HAL_Driver/Src/stm32l0xx_hal_i2c.c ****     {
 1814              		.loc 1 1539 16
 1815 0172 FB68     		ldr	r3, [r7, #12]
 1816 0174 5B8D     		ldrh	r3, [r3, #42]
 1817 0176 9BB2     		uxth	r3, r3
1539:Drivers/STM32L0xx_HAL_Driver/Src/stm32l0xx_hal_i2c.c ****     {
 1818              		.loc 1 1539 11
 1819 0178 002B     		cmp	r3, #0
 1820 017a BAD1     		bne	.L74
1569:Drivers/STM32L0xx_HAL_Driver/Src/stm32l0xx_hal_i2c.c ****     }
1570:Drivers/STM32L0xx_HAL_Driver/Src/stm32l0xx_hal_i2c.c **** 
1571:Drivers/STM32L0xx_HAL_Driver/Src/stm32l0xx_hal_i2c.c ****     /* Wait until STOP flag is set */
1572:Drivers/STM32L0xx_HAL_Driver/Src/stm32l0xx_hal_i2c.c ****     if (I2C_WaitOnSTOPFlagUntilTimeout(hi2c, Timeout, tickstart) != HAL_OK)
 1821              		.loc 1 1572 9
 1822 017c 7A69     		ldr	r2, [r7, #20]
 1823 017e 3968     		ldr	r1, [r7]
 1824 0180 FB68     		ldr	r3, [r7, #12]
 1825 0182 1800     		movs	r0, r3
 1826 0184 FFF7FEFF 		bl	I2C_WaitOnSTOPFlagUntilTimeout
 1827 0188 031E     		subs	r3, r0, #0
 1828              		.loc 1 1572 8
 1829 018a 0AD0     		beq	.L75
1573:Drivers/STM32L0xx_HAL_Driver/Src/stm32l0xx_hal_i2c.c ****     {
1574:Drivers/STM32L0xx_HAL_Driver/Src/stm32l0xx_hal_i2c.c ****       /* Disable Address Acknowledge */
1575:Drivers/STM32L0xx_HAL_Driver/Src/stm32l0xx_hal_i2c.c ****       hi2c->Instance->CR2 |= I2C_CR2_NACK;
 1830              		.loc 1 1575 11
 1831 018c FB68     		ldr	r3, [r7, #12]
 1832 018e 1B68     		ldr	r3, [r3]
 1833              		.loc 1 1575 27
 1834 0190 5A68     		ldr	r2, [r3, #4]
 1835              		.loc 1 1575 11
 1836 0192 FB68     		ldr	r3, [r7, #12]
 1837 0194 1B68     		ldr	r3, [r3]
 1838              		.loc 1 1575 27
 1839 0196 8021     		movs	r1, #128
 1840 0198 0902     		lsls	r1, r1, #8
 1841 019a 0A43     		orrs	r2, r1
 1842 019c 5A60     		str	r2, [r3, #4]
1576:Drivers/STM32L0xx_HAL_Driver/Src/stm32l0xx_hal_i2c.c ****       return HAL_ERROR;
 1843              		.loc 1 1576 14
 1844 019e 0123     		movs	r3, #1
 1845 01a0 32E0     		b	.L67
 1846              	.L75:
1577:Drivers/STM32L0xx_HAL_Driver/Src/stm32l0xx_hal_i2c.c ****     }
1578:Drivers/STM32L0xx_HAL_Driver/Src/stm32l0xx_hal_i2c.c **** 
ARM GAS  /var/folders/fs/dxwfnrqj18z860lwl3d6f5t00000gn/T//cc1liz9x.s 			page 61


1579:Drivers/STM32L0xx_HAL_Driver/Src/stm32l0xx_hal_i2c.c ****     /* Clear STOP flag */
1580:Drivers/STM32L0xx_HAL_Driver/Src/stm32l0xx_hal_i2c.c ****     __HAL_I2C_CLEAR_FLAG(hi2c, I2C_FLAG_STOPF);
 1847              		.loc 1 1580 5
 1848 01a2 FB68     		ldr	r3, [r7, #12]
 1849 01a4 1B68     		ldr	r3, [r3]
 1850 01a6 2022     		movs	r2, #32
 1851 01a8 DA61     		str	r2, [r3, #28]
1581:Drivers/STM32L0xx_HAL_Driver/Src/stm32l0xx_hal_i2c.c **** 
1582:Drivers/STM32L0xx_HAL_Driver/Src/stm32l0xx_hal_i2c.c ****     /* Wait until BUSY flag is reset */
1583:Drivers/STM32L0xx_HAL_Driver/Src/stm32l0xx_hal_i2c.c ****     if (I2C_WaitOnFlagUntilTimeout(hi2c, I2C_FLAG_BUSY, SET, Timeout, tickstart) != HAL_OK)
 1852              		.loc 1 1583 9
 1853 01aa 3A68     		ldr	r2, [r7]
 1854 01ac 8023     		movs	r3, #128
 1855 01ae 1902     		lsls	r1, r3, #8
 1856 01b0 F868     		ldr	r0, [r7, #12]
 1857 01b2 7B69     		ldr	r3, [r7, #20]
 1858 01b4 0093     		str	r3, [sp]
 1859 01b6 1300     		movs	r3, r2
 1860 01b8 0122     		movs	r2, #1
 1861 01ba FFF7FEFF 		bl	I2C_WaitOnFlagUntilTimeout
 1862 01be 031E     		subs	r3, r0, #0
 1863              		.loc 1 1583 8
 1864 01c0 0AD0     		beq	.L76
1584:Drivers/STM32L0xx_HAL_Driver/Src/stm32l0xx_hal_i2c.c ****     {
1585:Drivers/STM32L0xx_HAL_Driver/Src/stm32l0xx_hal_i2c.c ****       /* Disable Address Acknowledge */
1586:Drivers/STM32L0xx_HAL_Driver/Src/stm32l0xx_hal_i2c.c ****       hi2c->Instance->CR2 |= I2C_CR2_NACK;
 1865              		.loc 1 1586 11
 1866 01c2 FB68     		ldr	r3, [r7, #12]
 1867 01c4 1B68     		ldr	r3, [r3]
 1868              		.loc 1 1586 27
 1869 01c6 5A68     		ldr	r2, [r3, #4]
 1870              		.loc 1 1586 11
 1871 01c8 FB68     		ldr	r3, [r7, #12]
 1872 01ca 1B68     		ldr	r3, [r3]
 1873              		.loc 1 1586 27
 1874 01cc 8021     		movs	r1, #128
 1875 01ce 0902     		lsls	r1, r1, #8
 1876 01d0 0A43     		orrs	r2, r1
 1877 01d2 5A60     		str	r2, [r3, #4]
1587:Drivers/STM32L0xx_HAL_Driver/Src/stm32l0xx_hal_i2c.c ****       return HAL_ERROR;
 1878              		.loc 1 1587 14
 1879 01d4 0123     		movs	r3, #1
 1880 01d6 17E0     		b	.L67
 1881              	.L76:
1588:Drivers/STM32L0xx_HAL_Driver/Src/stm32l0xx_hal_i2c.c ****     }
1589:Drivers/STM32L0xx_HAL_Driver/Src/stm32l0xx_hal_i2c.c **** 
1590:Drivers/STM32L0xx_HAL_Driver/Src/stm32l0xx_hal_i2c.c ****     /* Disable Address Acknowledge */
1591:Drivers/STM32L0xx_HAL_Driver/Src/stm32l0xx_hal_i2c.c ****     hi2c->Instance->CR2 |= I2C_CR2_NACK;
 1882              		.loc 1 1591 9
 1883 01d8 FB68     		ldr	r3, [r7, #12]
 1884 01da 1B68     		ldr	r3, [r3]
 1885              		.loc 1 1591 25
 1886 01dc 5A68     		ldr	r2, [r3, #4]
 1887              		.loc 1 1591 9
 1888 01de FB68     		ldr	r3, [r7, #12]
 1889 01e0 1B68     		ldr	r3, [r3]
 1890              		.loc 1 1591 25
ARM GAS  /var/folders/fs/dxwfnrqj18z860lwl3d6f5t00000gn/T//cc1liz9x.s 			page 62


 1891 01e2 8021     		movs	r1, #128
 1892 01e4 0902     		lsls	r1, r1, #8
 1893 01e6 0A43     		orrs	r2, r1
 1894 01e8 5A60     		str	r2, [r3, #4]
1592:Drivers/STM32L0xx_HAL_Driver/Src/stm32l0xx_hal_i2c.c **** 
1593:Drivers/STM32L0xx_HAL_Driver/Src/stm32l0xx_hal_i2c.c ****     hi2c->State = HAL_I2C_STATE_READY;
 1895              		.loc 1 1593 17
 1896 01ea FB68     		ldr	r3, [r7, #12]
 1897 01ec 4122     		movs	r2, #65
 1898 01ee 2021     		movs	r1, #32
 1899 01f0 9954     		strb	r1, [r3, r2]
1594:Drivers/STM32L0xx_HAL_Driver/Src/stm32l0xx_hal_i2c.c ****     hi2c->Mode  = HAL_I2C_MODE_NONE;
 1900              		.loc 1 1594 17
 1901 01f2 FB68     		ldr	r3, [r7, #12]
 1902 01f4 4222     		movs	r2, #66
 1903 01f6 0021     		movs	r1, #0
 1904 01f8 9954     		strb	r1, [r3, r2]
1595:Drivers/STM32L0xx_HAL_Driver/Src/stm32l0xx_hal_i2c.c **** 
1596:Drivers/STM32L0xx_HAL_Driver/Src/stm32l0xx_hal_i2c.c ****     /* Process Unlocked */
1597:Drivers/STM32L0xx_HAL_Driver/Src/stm32l0xx_hal_i2c.c ****     __HAL_UNLOCK(hi2c);
 1905              		.loc 1 1597 5
 1906 01fa FB68     		ldr	r3, [r7, #12]
 1907 01fc 4022     		movs	r2, #64
 1908 01fe 0021     		movs	r1, #0
 1909 0200 9954     		strb	r1, [r3, r2]
1598:Drivers/STM32L0xx_HAL_Driver/Src/stm32l0xx_hal_i2c.c **** 
1599:Drivers/STM32L0xx_HAL_Driver/Src/stm32l0xx_hal_i2c.c ****     return HAL_OK;
 1910              		.loc 1 1599 12
 1911 0202 0023     		movs	r3, #0
 1912 0204 00E0     		b	.L67
 1913              	.L64:
1600:Drivers/STM32L0xx_HAL_Driver/Src/stm32l0xx_hal_i2c.c ****   }
1601:Drivers/STM32L0xx_HAL_Driver/Src/stm32l0xx_hal_i2c.c ****   else
1602:Drivers/STM32L0xx_HAL_Driver/Src/stm32l0xx_hal_i2c.c ****   {
1603:Drivers/STM32L0xx_HAL_Driver/Src/stm32l0xx_hal_i2c.c ****     return HAL_BUSY;
 1914              		.loc 1 1603 12
 1915 0206 0223     		movs	r3, #2
 1916              	.L67:
1604:Drivers/STM32L0xx_HAL_Driver/Src/stm32l0xx_hal_i2c.c ****   }
1605:Drivers/STM32L0xx_HAL_Driver/Src/stm32l0xx_hal_i2c.c **** }
 1917              		.loc 1 1605 1
 1918 0208 1800     		movs	r0, r3
 1919 020a BD46     		mov	sp, r7
 1920 020c 06B0     		add	sp, sp, #24
 1921              		@ sp needed
 1922 020e 80BD     		pop	{r7, pc}
 1923              	.L78:
 1924              		.align	2
 1925              	.L77:
 1926 0210 FF7FFFFF 		.word	-32769
 1927              		.cfi_endproc
 1928              	.LFE54:
 1930              		.section	.text.HAL_I2C_Master_Transmit_IT,"ax",%progbits
 1931              		.align	1
 1932              		.global	HAL_I2C_Master_Transmit_IT
 1933              		.syntax unified
 1934              		.code	16
ARM GAS  /var/folders/fs/dxwfnrqj18z860lwl3d6f5t00000gn/T//cc1liz9x.s 			page 63


 1935              		.thumb_func
 1936              		.fpu softvfp
 1938              	HAL_I2C_Master_Transmit_IT:
 1939              	.LFB55:
1606:Drivers/STM32L0xx_HAL_Driver/Src/stm32l0xx_hal_i2c.c **** 
1607:Drivers/STM32L0xx_HAL_Driver/Src/stm32l0xx_hal_i2c.c **** /**
1608:Drivers/STM32L0xx_HAL_Driver/Src/stm32l0xx_hal_i2c.c ****   * @brief  Transmit in master mode an amount of data in non-blocking mode with Interrupt
1609:Drivers/STM32L0xx_HAL_Driver/Src/stm32l0xx_hal_i2c.c ****   * @param  hi2c Pointer to a I2C_HandleTypeDef structure that contains
1610:Drivers/STM32L0xx_HAL_Driver/Src/stm32l0xx_hal_i2c.c ****   *                the configuration information for the specified I2C.
1611:Drivers/STM32L0xx_HAL_Driver/Src/stm32l0xx_hal_i2c.c ****   * @param  DevAddress Target device address: The device 7 bits address value
1612:Drivers/STM32L0xx_HAL_Driver/Src/stm32l0xx_hal_i2c.c ****   *         in datasheet must be shifted to the left before calling the interface
1613:Drivers/STM32L0xx_HAL_Driver/Src/stm32l0xx_hal_i2c.c ****   * @param  pData Pointer to data buffer
1614:Drivers/STM32L0xx_HAL_Driver/Src/stm32l0xx_hal_i2c.c ****   * @param  Size Amount of data to be sent
1615:Drivers/STM32L0xx_HAL_Driver/Src/stm32l0xx_hal_i2c.c ****   * @retval HAL status
1616:Drivers/STM32L0xx_HAL_Driver/Src/stm32l0xx_hal_i2c.c ****   */
1617:Drivers/STM32L0xx_HAL_Driver/Src/stm32l0xx_hal_i2c.c **** HAL_StatusTypeDef HAL_I2C_Master_Transmit_IT(I2C_HandleTypeDef *hi2c, uint16_t DevAddress, uint8_t 
1618:Drivers/STM32L0xx_HAL_Driver/Src/stm32l0xx_hal_i2c.c ****                                              uint16_t Size)
1619:Drivers/STM32L0xx_HAL_Driver/Src/stm32l0xx_hal_i2c.c **** {
 1940              		.loc 1 1619 1
 1941              		.cfi_startproc
 1942              		@ args = 0, pretend = 0, frame = 24
 1943              		@ frame_needed = 1, uses_anonymous_args = 0
 1944 0000 90B5     		push	{r4, r7, lr}
 1945              	.LCFI24:
 1946              		.cfi_def_cfa_offset 12
 1947              		.cfi_offset 4, -12
 1948              		.cfi_offset 7, -8
 1949              		.cfi_offset 14, -4
 1950 0002 89B0     		sub	sp, sp, #36
 1951              	.LCFI25:
 1952              		.cfi_def_cfa_offset 48
 1953 0004 02AF     		add	r7, sp, #8
 1954              	.LCFI26:
 1955              		.cfi_def_cfa 7, 40
 1956 0006 F860     		str	r0, [r7, #12]
 1957 0008 0800     		movs	r0, r1
 1958 000a 7A60     		str	r2, [r7, #4]
 1959 000c 1900     		movs	r1, r3
 1960 000e 0A23     		movs	r3, #10
 1961 0010 FB18     		adds	r3, r7, r3
 1962 0012 021C     		adds	r2, r0, #0
 1963 0014 1A80     		strh	r2, [r3]
 1964 0016 0823     		movs	r3, #8
 1965 0018 FB18     		adds	r3, r7, r3
 1966 001a 0A1C     		adds	r2, r1, #0
 1967 001c 1A80     		strh	r2, [r3]
1620:Drivers/STM32L0xx_HAL_Driver/Src/stm32l0xx_hal_i2c.c ****   uint32_t xfermode;
1621:Drivers/STM32L0xx_HAL_Driver/Src/stm32l0xx_hal_i2c.c **** 
1622:Drivers/STM32L0xx_HAL_Driver/Src/stm32l0xx_hal_i2c.c ****   if (hi2c->State == HAL_I2C_STATE_READY)
 1968              		.loc 1 1622 11
 1969 001e FB68     		ldr	r3, [r7, #12]
 1970 0020 4122     		movs	r2, #65
 1971 0022 9B5C     		ldrb	r3, [r3, r2]
 1972 0024 DBB2     		uxtb	r3, r3
 1973              		.loc 1 1622 6
 1974 0026 202B     		cmp	r3, #32
 1975 0028 5BD1     		bne	.L80
ARM GAS  /var/folders/fs/dxwfnrqj18z860lwl3d6f5t00000gn/T//cc1liz9x.s 			page 64


1623:Drivers/STM32L0xx_HAL_Driver/Src/stm32l0xx_hal_i2c.c ****   {
1624:Drivers/STM32L0xx_HAL_Driver/Src/stm32l0xx_hal_i2c.c ****     if (__HAL_I2C_GET_FLAG(hi2c, I2C_FLAG_BUSY) == SET)
 1976              		.loc 1 1624 9
 1977 002a FB68     		ldr	r3, [r7, #12]
 1978 002c 1B68     		ldr	r3, [r3]
 1979 002e 9A69     		ldr	r2, [r3, #24]
 1980 0030 8023     		movs	r3, #128
 1981 0032 1B02     		lsls	r3, r3, #8
 1982 0034 1A40     		ands	r2, r3
 1983              		.loc 1 1624 8
 1984 0036 8023     		movs	r3, #128
 1985 0038 1B02     		lsls	r3, r3, #8
 1986 003a 9A42     		cmp	r2, r3
 1987 003c 01D1     		bne	.L81
1625:Drivers/STM32L0xx_HAL_Driver/Src/stm32l0xx_hal_i2c.c ****     {
1626:Drivers/STM32L0xx_HAL_Driver/Src/stm32l0xx_hal_i2c.c ****       return HAL_BUSY;
 1988              		.loc 1 1626 14
 1989 003e 0223     		movs	r3, #2
 1990 0040 50E0     		b	.L82
 1991              	.L81:
1627:Drivers/STM32L0xx_HAL_Driver/Src/stm32l0xx_hal_i2c.c ****     }
1628:Drivers/STM32L0xx_HAL_Driver/Src/stm32l0xx_hal_i2c.c **** 
1629:Drivers/STM32L0xx_HAL_Driver/Src/stm32l0xx_hal_i2c.c ****     /* Process Locked */
1630:Drivers/STM32L0xx_HAL_Driver/Src/stm32l0xx_hal_i2c.c ****     __HAL_LOCK(hi2c);
 1992              		.loc 1 1630 5
 1993 0042 FB68     		ldr	r3, [r7, #12]
 1994 0044 4022     		movs	r2, #64
 1995 0046 9B5C     		ldrb	r3, [r3, r2]
 1996 0048 012B     		cmp	r3, #1
 1997 004a 01D1     		bne	.L83
 1998              		.loc 1 1630 5 is_stmt 0 discriminator 1
 1999 004c 0223     		movs	r3, #2
 2000 004e 49E0     		b	.L82
 2001              	.L83:
 2002              		.loc 1 1630 5 discriminator 2
 2003 0050 FB68     		ldr	r3, [r7, #12]
 2004 0052 4022     		movs	r2, #64
 2005 0054 0121     		movs	r1, #1
 2006 0056 9954     		strb	r1, [r3, r2]
1631:Drivers/STM32L0xx_HAL_Driver/Src/stm32l0xx_hal_i2c.c **** 
1632:Drivers/STM32L0xx_HAL_Driver/Src/stm32l0xx_hal_i2c.c ****     hi2c->State       = HAL_I2C_STATE_BUSY_TX;
 2007              		.loc 1 1632 23 is_stmt 1 discriminator 2
 2008 0058 FB68     		ldr	r3, [r7, #12]
 2009 005a 4122     		movs	r2, #65
 2010 005c 2121     		movs	r1, #33
 2011 005e 9954     		strb	r1, [r3, r2]
1633:Drivers/STM32L0xx_HAL_Driver/Src/stm32l0xx_hal_i2c.c ****     hi2c->Mode        = HAL_I2C_MODE_MASTER;
 2012              		.loc 1 1633 23 discriminator 2
 2013 0060 FB68     		ldr	r3, [r7, #12]
 2014 0062 4222     		movs	r2, #66
 2015 0064 1021     		movs	r1, #16
 2016 0066 9954     		strb	r1, [r3, r2]
1634:Drivers/STM32L0xx_HAL_Driver/Src/stm32l0xx_hal_i2c.c ****     hi2c->ErrorCode   = HAL_I2C_ERROR_NONE;
 2017              		.loc 1 1634 23 discriminator 2
 2018 0068 FB68     		ldr	r3, [r7, #12]
 2019 006a 0022     		movs	r2, #0
 2020 006c 5A64     		str	r2, [r3, #68]
ARM GAS  /var/folders/fs/dxwfnrqj18z860lwl3d6f5t00000gn/T//cc1liz9x.s 			page 65


1635:Drivers/STM32L0xx_HAL_Driver/Src/stm32l0xx_hal_i2c.c **** 
1636:Drivers/STM32L0xx_HAL_Driver/Src/stm32l0xx_hal_i2c.c ****     /* Prepare transfer parameters */
1637:Drivers/STM32L0xx_HAL_Driver/Src/stm32l0xx_hal_i2c.c ****     hi2c->pBuffPtr    = pData;
 2021              		.loc 1 1637 23 discriminator 2
 2022 006e FB68     		ldr	r3, [r7, #12]
 2023 0070 7A68     		ldr	r2, [r7, #4]
 2024 0072 5A62     		str	r2, [r3, #36]
1638:Drivers/STM32L0xx_HAL_Driver/Src/stm32l0xx_hal_i2c.c ****     hi2c->XferCount   = Size;
 2025              		.loc 1 1638 23 discriminator 2
 2026 0074 FB68     		ldr	r3, [r7, #12]
 2027 0076 0822     		movs	r2, #8
 2028 0078 BA18     		adds	r2, r7, r2
 2029 007a 1288     		ldrh	r2, [r2]
 2030 007c 5A85     		strh	r2, [r3, #42]
1639:Drivers/STM32L0xx_HAL_Driver/Src/stm32l0xx_hal_i2c.c ****     hi2c->XferOptions = I2C_NO_OPTION_FRAME;
 2031              		.loc 1 1639 23 discriminator 2
 2032 007e FB68     		ldr	r3, [r7, #12]
 2033 0080 1A4A     		ldr	r2, .L86
 2034 0082 DA62     		str	r2, [r3, #44]
1640:Drivers/STM32L0xx_HAL_Driver/Src/stm32l0xx_hal_i2c.c ****     hi2c->XferISR     = I2C_Master_ISR_IT;
 2035              		.loc 1 1640 23 discriminator 2
 2036 0084 FB68     		ldr	r3, [r7, #12]
 2037 0086 1A4A     		ldr	r2, .L86+4
 2038 0088 5A63     		str	r2, [r3, #52]
1641:Drivers/STM32L0xx_HAL_Driver/Src/stm32l0xx_hal_i2c.c **** 
